(lp0
(lp1
Vs
p2
aVj
p3
aVw
p4
aV9
p5
aa(lp6
Vl
p7
aVo
p8
aa(lp9
g2
ag3
aVi
p10
aa(lp11
g7
aVa
p12
aa(lp13
Vg
p14
ag3
ag8
ag4
aa(lp15
Vk
p16
aVh
p17
ag3
ag10
ag4
aa(lp18
g2
ag3
ag10
ag3
aa(lp19
Vd
p20
ag8
ag4
aa(lp21
g2
ag3
ag4
ag8
aa(lp22
Vz
p23
ag3
ag10
aa(lp24
g7
ag8
aa(lp25
Vb
p26
ag3
aVu
p27
aa(lp28
g23
ag12
aVr
p29
aa(lp30
Vp
p31
ag17
aV19
p32
aa(lp33
V7
p34
ag3
ag5
aa(lp35
Vt
p36
ag3
ag5
ag3
aa(lp37
a(lp38
g36
ag17
ag3
ag4
ag27
aa(lp39
g26
aVe
p40
ag29
aa(lp41
g36
aV5
p42
ag3
ag12
aa(lp43
g26
ag3
ag27
aa(lp44
g26
aV10
p45
aa(lp46
g29
ag3
ag8
ag29
aa(lp47
g31
ag17
ag3
ag10
ag3
aa(lp48
g16
ag17
ag10
aV17
p49
aa(lp50
V8
p51
ag4
ag27
aa(lp52
g51
ag8
ag4
ag29
aa(lp53
g7
ag17
ag3
aV20
p54
aa(lp55
g29
ag40
ag29
aa(lp56
g2
ag12
aa(lp57
g20
ag23
ag3
ag4
ag5
aa(lp58
g23
ag3
ag10
aa(lp59
g36
ag2
ag17
ag3
aV13
p60
aa(lp61
g7
ag8
ag4
aa(lp62
g23
ag12
ag29
aa(lp63
g14
aV20
p64
aa(lp65
g14
ag3
ag4
aV21
p66
aa(lp67
g42
ag10
ag8
aa(lp68
g16
ag8
ag4
ag29
aa(lp69
g4
ag40
ag3
aa(lp70
g20
aV6
p71
ag10
ag8
ag4
aa(lp72
g16
ag17
ag3
ag10
aa(lp73
g51
ag4
ag27
aa(lp74
g51
ag4
ag27
aa(lp75
g23
ag12
ag29
aa(lp76
g7
ag3
ag10
ag3
aa(lp77
g7
ag3
ag4
aV15
p78
aa(lp79
g36
ag17
ag3
ag4
ag27
aa(lp80
g71
ag3
ag10
aa(lp81
Vn
p82
ag3
aV18
p83
aa(lp84
g36
ag17
aV16
p85
ag29
aa(lp86
g71
ag3
ag10
aa(lp87
g82
ag3
aV14
p88
aa(lp89
g36
ag2
ag4
ag12
aa(lp90
g36
ag42
ag3
ag10
ag4
aa(lp91
g29
ag3
ag10
ag3
ag29
aa(lp92
a(lp93
g16
ag3
ag10
ag29
aa(lp94
g7
ag17
ag40
ag3
ag29
aa(lp95
g20
ag8
ag4
aa(lp96
a(lp97
g29
ag3
ag8
ag29
aa(lp98
g36
ag42
ag17
ag3
ag10
ag3
aa(lp99
a(lp100
g14
ag3
ag4
ag5
ag29
aa(lp101
g16
ag10
ag40
ag3
aa(lp102
g7
ag3
ag10
ag3
aa(lp103
g42
ag3
ag8
ag4
aa(lp104
g7
aV14
p105
aa(lp106
g36
ag17
ag3
ag4
ag5
aa(lp107
g20
ag71
ag3
ag4
ag10
ag3
aa(lp108
g4
ag8
ag4
aa(lp109
g36
ag42
ag3
aV3
p110
aa(lp111
g16
ag17
ag4
aV10
p112
aa(lp113
g42
ag10
aV19
p114
ag4
aa(lp115
a(lp116
g20
ag3
aV18
p117
ag3
aa(lp118
g36
ag3
aV13
p119
aa(lp120
a(lp121
g31
ag17
ag10
ag8
aa(lp122
g36
ag42
ag3
ag10
aa(lp123
g31
ag17
aV0
p124
aa(lp125
g4
ag40
aa(lp126
g31
ag17
ag124
aa(lp127
g7
ag40
aa(lp128
g42
ag3
ag4
ag8
ag4
aa(lp129
g36
ag2
ag8
ag4
aa(lp130
g36
ag40
ag4
aa(lp131
g36
ag42
ag17
ag3
aV16
p132
aa(lp133
g4
ag8
ag29
aa(lp134
g36
ag17
ag40
ag4
aa(lp135
Vm
p136
ag3
ag12
aa(lp137
g36
ag3
aV14
p138
aa(lp139
g42
ag3
ag4
ag8
aa(lp140
g36
ag42
ag17
ag3
aV16
p141
aa(lp142
a(lp143
g20
ag3
aV18
p144
ag3
aa(lp145
g29
ag3
ag8
ag29
aa(lp146
g36
ag17
ag3
ag4
ag5
aa(lp147
g7
ag40
ag4
aa(lp148
g36
ag42
ag17
ag3
aV16
p149
aa(lp150
g14
ag3
ag5
aa(lp151
g7
ag3
aV15
p152
aa(lp153
g36
ag42
ag17
ag3
aV16
p154
aa(lp155
g16
ag3
aV15
p156
aa(lp157
g42
ag10
aV19
p158
ag4
aa(lp159
g42
ag10
aV10
p160
aa(lp161
g14
ag3
ag110
aa(lp162
g14
ag3
aV13
p163
ag3
aa(lp164
g136
ag40
ag3
aa(lp165
g7
ag3
ag5
aa(lp166
g7
aV12
p167
aa(lp168
g42
ag3
ag5
ag3
aa(lp169
g20
ag71
ag3
ag4
ag10
ag3
aa(lp170
g7
ag8
ag4
aa(lp171
g36
ag42
ag17
ag3
ag12
aa(lp172
g36
ag17
ag40
ag4
aa(lp173
g82
ag8
aa(lp174
g7
ag3
aV15
p175
aa(lp176
g7
ag8
ag4
aa(lp177
g20
aV12
p178
aa(lp179
g4
ag3
aV19
p180
aa(lp181
g20
ag71
ag3
ag10
aa(lp182
g7
ag3
aV15
p183
aa(lp184
g136
ag3
aV20
p185
aa(lp186
g4
ag40
ag3
aa(lp187
g82
ag8
aa(lp188
g42
ag3
ag5
ag3
aa(lp189
g26
ag3
aV19
p190
aa(lp191
g36
ag17
ag27
aa(lp192
g36
ag2
ag3
ag4
ag10
aa(lp193
g42
ag3
ag10
ag3
aa(lp194
g7
ag4
aV10
p195
ag29
aa(lp196
V.
p197
ag3
ag27
aa(lp198
g16
ag3
aV14
p199
aa(lp200
g20
ag3
aV18
p201
ag3
aa(lp202
g7
ag3
aV15
p203
aa(lp204
g36
ag42
ag17
ag3
ag8
aa(lp205
g82
ag40
ag3
aa(lp206
g7
ag17
ag40
ag3
ag29
aa(lp207
g4
ag3
aV18
p208
aa(lp209
g7
ag3
aV13
p210
aa(lp211
g20
ag71
ag3
ag10
ag3
aa(lp212
g36
ag2
ag17
ag3
ag4
aV21
p213
aa(lp214
g36
ag2
aV17
p215
ag4
aa(lp216
g36
ag42
ag10
ag40
ag3
aa(lp217
g42
ag3
ag10
ag3
aa(lp218
g36
aV14
p219
aa(lp220
g197
ag4
ag40
ag3
ag29
aa(lp221
g14
ag3
aV15
p222
aa(lp223
g42
ag3
aV20
p224
aa(lp225
g16
ag10
aV12
p226
aa(lp227
g16
ag17
ag27
aa(lp228
g197
ag8
aa(lp229
g14
ag3
aV16
p230
aa(lp231
g4
ag3
ag10
ag29
aa(lp232
g36
ag42
ag10
ag4
ag40
ag3
aa(lp233
g29
ag3
ag10
ag3
ag29
aa(lp234
g82
ag8
aa(lp235
g20
ag3
ag10
ag3
aa(lp236
g20
ag3
aV13
p237
ag3
aa(lp238
g16
ag17
ag3
aV21
p239
aa(lp240
g136
ag3
aV1
p241
aa(lp242
g20
aV11
p243
aa(lp244
Vx
p245
ag12
aa(lp246
g136
ag3
aV13
p247
aa(lp248
g197
ag3
ag12
aa(lp249
g31
ag3
ag5
aa(lp250
g42
ag3
ag4
ag10
aa(lp251
g36
ag42
ag17
ag3
ag10
aa(lp252
g16
ag40
ag4
aa(lp253
g16
ag3
ag5
aa(lp254
g7
ag17
ag10
aV16
p255
aa(lp256
g16
ag17
ag3
ag4
aV13
p257
aa(lp258
g197
ag4
ag10
aa(lp259
g82
ag3
aV16
p260
aa(lp261
g29
ag12
ag29
aa(lp262
g34
ag10
aV17
p263
aa(lp264
g14
ag3
ag8
ag4
aa(lp265
g20
ag3
ag10
aa(lp266
g7
aV10
p267
aa(lp268
g4
ag3
aV11
p269
aa(lp270
g31
ag17
ag3
ag8
aa(lp271
g36
ag4
ag12
aa(lp272
g82
ag3
ag4
ag5
aa(lp273
g7
ag27
aa(lp274
g82
ag12
ag29
aa(lp275
g42
ag3
ag4
ag241
aa(lp276
g20
ag23
ag3
aV13
p277
aa(lp278
g26
ag3
ag10
aa(lp279
g16
ag3
ag4
ag10
ag3
aa(lp280
g7
ag3
aV13
p281
aa(lp282
g7
ag3
ag110
ag3
aa(lp283
g36
ag42
ag3
aV13
p284
aa(lp285
g2
ag3
ag4
ag5
aa(lp286
g20
ag3
ag4
ag27
aa(lp287
g29
ag40
ag29
aa(lp288
g7
ag17
ag3
aV13
p289
aa(lp290
g2
ag3
ag5
aa(lp291
g7
ag8
ag4
aa(lp292
g136
ag3
ag10
ag3
aa(lp293
a(lp294
g16
ag17
ag10
ag4
aV10
p295
aa(lp296
g2
ag3
ag4
ag8
aa(lp297
g20
ag71
ag10
aV21
p298
aa(lp299
g26
aV20
p300
aa(lp301
g7
ag3
ag110
ag3
aa(lp302
g26
aV10
p303
ag29
aa(lp304
g7
ag3
ag4
ag10
aa(lp305
g26
aV12
p306
aa(lp307
g16
ag3
aV20
p308
aa(lp309
g42
ag10
aV19
p310
ag4
aa(lp311
g82
ag3
ag10
ag3
aa(lp312
g7
aV15
p313
aa(lp314
a(lp315
g16
ag17
ag10
ag40
aa(lp316
g7
ag3
ag10
aa(lp317
g197
ag3
aV18
p318
ag3
aa(lp319
g36
ag2
ag40
ag4
ag29
aa(lp320
g36
ag42
ag10
aV10
p321
ag3
aa(lp322
g7
ag17
ag3
ag10
aa(lp323
g245
ag8
ag4
ag29
aa(lp324
g16
ag10
aV10
p325
aa(lp326
g29
ag12
ag29
aa(lp327
g34
ag3
ag5
aa(lp328
g51
ag4
ag27
aa(lp329
g136
ag3
ag8
ag29
aa(lp330
g16
ag10
aV17
p331
ag3
aa(lp332
g51
ag3
ag8
ag4
aa(lp333
g34
ag3
ag5
ag29
aa(lp334
g34
ag3
ag5
ag29
aa(lp335
g245
ag12
ag29
aa(lp336
g23
ag40
ag4
ag29
aa(lp337
g42
ag10
aV12
p338
ag3
aa(lp339
g20
aV20
p340
aa(lp341
g197
aV15
p342
aa(lp343
g14
ag3
ag10
ag3
aa(lp344
g42
ag10
aV12
p345
ag3
aa(lp346
g7
ag17
ag3
ag5
aa(lp347
g20
ag3
aV15
p348
aa(lp349
g20
ag3
aV15
p350
aa(lp351
g7
ag3
ag8
ag4
aa(lp352
g2
ag3
ag10
aa(lp353
g16
ag12
aa(lp354
g42
ag3
ag4
ag10
aa(lp355
g136
ag3
ag10
ag3
aa(lp356
g7
ag17
ag8
ag4
ag40
ag29
aa(lp357
g82
ag8
aa(lp358
g20
ag23
aV10
p359
ag3
aa(lp360
g26
aV12
p361
aa(lp362
g26
ag3
ag10
aa(lp363
g2
ag3
ag8
aa(lp364
g36
ag17
aV19
p365
aa(lp366
g16
ag17
ag27
aa(lp367
g7
aV11
p368
aa(lp369
a(lp370
g51
ag4
aV10
p371
ag29
aa(lp372
g20
ag23
ag4
ag40
ag4
aa(lp373
g7
ag3
ag4
ag12
aa(lp374
g51
ag12
aa(lp375
g136
ag3
ag8
aa(lp376
g7
ag40
ag3
aa(lp377
g36
ag3
aV15
p378
aa(lp379
g16
ag10
ag40
ag3
aa(lp380
g31
aV2
p381
aa(lp382
g16
ag3
ag5
ag29
aa(lp383
g42
ag3
ag4
ag5
ag3
aa(lp384
g197
ag3
ag5
ag29
aa(lp385
g16
ag17
ag3
ag241
aa(lp386
g16
ag3
ag241
ag29
aa(lp387
g136
ag3
ag10
ag3
ag29
aa(lp388
g7
ag40
ag3
aa(lp389
g7
ag40
ag3
aa(lp390
g36
ag2
ag3
aV13
p391
ag3
aa(lp392
g26
ag3
aV18
p393
aa(lp394
g82
ag8
aa(lp395
g71
ag3
ag10
aa(lp396
g16
ag3
ag5
aa(lp397
g36
ag42
ag3
aV16
p398
aa(lp399
g20
ag71
ag3
ag4
ag10
ag3
aa(lp400
g36
ag2
ag40
ag29
aa(lp401
g36
ag42
ag17
ag3
ag10
ag4
aa(lp402
g16
ag10
ag4
aV10
p403
ag3
aa(lp404
g42
ag3
ag4
ag8
aa(lp405
g29
ag40
ag29
aa(lp406
g82
ag12
aa(lp407
g51
ag12
aa(lp408
g20
ag23
ag3
ag10
ag4
aa(lp409
g4
ag40
aa(lp410
g2
ag3
ag27
aa(lp411
g16
ag3
ag241
ag29
aa(lp412
g51
ag4
aV10
p413
ag29
aa(lp414
g20
ag23
ag40
aa(lp415
g4
ag12
aa(lp416
g36
ag2
ag27
ag29
aa(lp417
g36
ag40
ag4
aa(lp418
g2
ag3
ag10
ag3
aa(lp419
g36
ag42
ag17
ag3
ag10
aa(lp420
g20
ag3
aV13
p421
aa(lp422
g4
ag3
ag12
ag29
aa(lp423
g7
aV11
p424
aa(lp425
g20
ag71
ag3
ag10
aa(lp426
g20
ag71
ag3
ag10
ag3
aa(lp427
g34
ag12
aa(lp428
g7
ag3
ag4
ag27
aa(lp429
g82
ag3
ag10
ag29
aa(lp430
g7
ag17
ag3
ag10
ag3
aa(lp431
g7
ag17
ag3
ag10
aa(lp432
g2
ag3
ag27
aa(lp433
g136
ag27
aa(lp434
g36
ag2
ag17
ag3
ag4
ag5
aa(lp435
g26
ag3
aV11
p436
aa(lp437
g29
ag40
ag4
ag29
aa(lp438
g16
ag10
ag40
ag3
aa(lp439
g71
ag3
ag10
aa(lp440
g245
ag10
ag4
ag12
aa(lp441
g20
aV12
p442
ag3
aa(lp443
g36
ag2
ag17
ag3
ag4
ag27
aa(lp444
g36
ag2
ag17
ag3
ag4
ag27
aa(lp445
g4
ag124
aa(lp446
g34
ag10
aV10
p447
aa(lp448
g36
ag42
ag17
ag3
ag4
ag8
aa(lp449
g42
ag3
ag12
ag29
aa(lp450
g4
ag3
aV14
p451
aa(lp452
a(lp453
g16
ag17
ag3
aV23
p454
aa(lp455
g136
aV10
p456
aa(lp457
g16
ag27
aa(lp458
g29
ag3
ag10
ag29
aa(lp459
g136
ag3
aV18
p460
ag3
aa(lp461
g7
ag4
aV11
p462
aa(lp463
g51
ag4
aV10
p464
ag29
aa(lp465
g51
ag4
ag40
ag29
aa(lp466
g16
ag17
ag3
ag10
ag3
aa(lp467
g31
ag17
ag3
ag12
aa(lp468
g14
ag27
aa(lp469
g20
ag3
ag5
aa(lp470
g7
ag3
ag5
aa(lp471
g20
ag71
ag3
aV16
p472
aa(lp473
g7
ag3
ag5
ag3
aa(lp474
g23
ag4
ag40
ag4
aa(lp475
g20
ag23
ag3
ag5
aa(lp476
g34
ag10
aV21
p477
aa(lp478
g16
ag17
ag27
aa(lp479
a(lp480
g42
ag3
ag12
aa(lp481
g16
ag17
aV10
p482
aa(lp483
g26
aV17
p484
aa(lp485
g7
ag3
ag241
aa(lp486
g31
ag17
ag27
aa(lp487
g16
ag3
aV15
p488
aa(lp489
g20
ag71
ag10
ag8
aa(lp490
g20
ag71
ag3
ag5
aa(lp491
g7
ag17
ag3
ag10
aa(lp492
g136
ag3
ag27
aa(lp493
g42
ag3
ag10
ag3
aa(lp494
g7
ag3
aV16
p495
aa(lp496
g16
ag3
ag241
ag29
aa(lp497
g36
aV15
p498
aa(lp499
g26
ag3
ag27
aa(lp500
g16
ag17
ag3
ag10
ag3
aa(lp501
g36
ag3
aV15
p502
aa(lp503
g82
ag27
aa(lp504
g36
ag2
ag3
ag5
ag3
aa(lp505
g16
ag4
ag8
ag4
aa(lp506
g36
ag42
ag17
ag3
aV20
p507
aa(lp508
g136
ag40
ag3
aa(lp509
g20
ag3
ag27
aa(lp510
g36
ag17
ag3
aV20
p511
aa(lp512
g197
ag3
ag10
ag3
aa(lp513
g197
ag10
aV19
p514
ag4
aa(lp515
g42
ag3
ag4
ag12
aa(lp516
g4
ag40
aa(lp517
g7
ag17
ag3
aV18
p518
aa(lp519
g16
ag12
aa(lp520
g4
ag3
ag12
aa(lp521
g82
ag3
ag4
ag10
ag3
aa(lp522
g197
ag27
aa(lp523
g51
ag3
ag8
ag4
aa(lp524
g4
ag40
aa(lp525
g20
aV21
p526
aa(lp527
g20
ag23
ag3
ag10
aa(lp528
g7
ag40
aa(lp529
g7
ag3
aV13
p530
ag3
aa(lp531
g4
ag3
aV13
p532
aa(lp533
g16
ag3
ag5
aa(lp534
g4
ag8
ag29
aa(lp535
g36
ag17
ag3
ag12
aa(lp536
a(lp537
g16
ag17
ag3
ag4
ag5
aa(lp538
g7
ag3
ag10
ag3
aa(lp539
g7
ag17
ag3
ag5
ag3
aa(lp540
g82
ag3
aV13
p541
aa(lp542
g7
ag17
ag3
aV13
p543
aa(lp544
g51
ag4
ag40
aa(lp545
g36
ag17
ag3
ag12
aa(lp546
g14
ag3
ag10
ag4
aa(lp547
g2
ag3
ag4
ag8
aa(lp548
g82
ag3
ag27
aa(lp549
g197
ag3
ag8
ag4
aa(lp550
g26
ag10
ag8
aa(lp551
g36
ag42
ag3
ag12
aa(lp552
g4
ag8
ag4
aa(lp553
g16
aV21
p554
aa(lp555
g20
ag23
ag3
ag4
ag110
aa(lp556
g20
ag3
ag4
ag10
aa(lp557
g20
ag3
ag4
ag27
aa(lp558
a(lp559
g136
ag3
ag12
aa(lp560
g4
ag40
aa(lp561
g36
ag42
ag17
ag10
aV10
p562
aa(lp563
g36
ag3
ag110
aa(lp564
g197
ag3
ag12
ag29
aa(lp565
g42
ag3
ag4
ag10
ag3
aa(lp566
g36
ag2
ag27
aa(lp567
g36
ag2
ag3
ag12
aa(lp568
g16
ag17
ag4
aV10
p569
aa(lp570
g245
ag3
ag4
ag5
aa(lp571
g36
ag17
aV20
p572
aa(lp573
g31
ag17
ag3
aV21
p574
aa(lp575
g31
ag17
ag3
ag8
ag4
aa(lp576
g16
ag10
ag40
ag29
aa(lp577
g20
ag4
aV10
p578
ag29
aa(lp579
g36
ag3
ag10
ag3
aa(lp580
g20
ag4
aV10
p581
aa(lp582
g36
ag42
ag10
ag40
ag4
aa(lp583
g197
ag3
ag10
ag3
aa(lp584
g20
ag23
ag3
aV15
p585
aa(lp586
g82
ag3
ag4
ag8
aa(lp587
g36
ag17
ag381
aa(lp588
g36
ag2
ag3
ag12
aa(lp589
g2
ag3
ag4
ag5
aa(lp590
g26
ag3
ag27
aa(lp591
g197
ag3
ag10
aa(lp592
g16
ag3
aV11
p593
aa(lp594
g16
ag3
ag10
ag4
ag29
aa(lp595
g7
ag4
aV10
p596
ag29
aa(lp597
g7
ag3
ag27
aa(lp598
g34
ag10
aV12
p599
aa(lp600
g34
ag10
aV12
p601
aa(lp602
g2
ag3
ag4
ag5
aa(lp603
g16
ag17
ag10
aV10
p604
ag3
aa(lp605
g20
ag71
ag3
ag8
aa(lp606
g36
ag42
ag17
ag3
ag8
ag4
aa(lp607
g51
ag4
aV20
p608
aa(lp609
g42
ag3
ag4
ag10
ag3
aa(lp610
g36
ag42
ag17
ag3
ag4
ag8
aa(lp611
g14
ag3
ag5
aa(lp612
g4
ag40
aa(lp613
g42
ag3
ag5
aa(lp614
g197
ag3
ag10
ag3
aa(lp615
a(lp616
a(lp617
g16
ag10
aV12
p618
ag3
aa(lp619
g20
ag23
ag3
ag5
ag3
aa(lp620
g36
ag3
aV11
p621
aa(lp622
g42
ag3
ag5
aa(lp623
g16
ag8
ag29
aa(lp624
g4
ag3
aV13
p625
ag3
aa(lp626
g20
ag23
ag27
aa(lp627
g26
ag3
ag27
aa(lp628
g36
ag3
aV11
p629
aa(lp630
g4
ag40
aa(lp631
g2
ag8
aa(lp632
g36
ag42
ag3
ag5
ag3
aa(lp633
g20
ag23
ag3
aV15
p634
aa(lp635
g36
ag2
ag3
aV18
p636
ag29
aa(lp637
g31
ag17
ag10
ag8
ag4
aa(lp638
g136
ag3
aV14
p639
aa(lp640
g7
ag10
ag12
aa(lp641
g14
ag3
ag10
ag3
aa(lp642
g29
ag3
ag5
ag29
aa(lp643
g20
ag8
ag4
aa(lp644
g14
ag8
aa(lp645
g7
ag3
ag27
aa(lp646
g4
ag3
ag10
ag3
aa(lp647
g23
ag3
ag110
aa(lp648
g42
ag3
aV19
p649
aa(lp650
g42
ag10
aV17
p651
ag3
aa(lp652
g7
ag17
ag12
aa(lp653
g197
ag3
ag10
ag29
aa(lp654
g20
ag23
ag3
ag5
ag3
aa(lp655
g31
ag17
ag3
ag241
aa(lp656
g16
ag3
aV18
p657
ag29
aa(lp658
g2
ag3
ag4
ag5
aa(lp659
g31
ag12
ag29
aa(lp660
g2
ag3
ag4
aV15
p661
aa(lp662
g7
ag27
aa(lp663
g20
ag3
ag10
aa(lp664
g14
ag3
aV13
p665
aa(lp666
g7
ag3
aV14
p667
aa(lp668
g16
aV10
p669
aa(lp670
g2
ag3
ag5
aa(lp671
g197
ag3
ag10
aa(lp672
g16
ag3
ag5
aa(lp673
g7
ag3
aV13
p674
ag3
aa(lp675
g51
ag40
ag4
ag29
aa(lp676
g7
ag10
ag12
aa(lp677
g31
ag10
aV12
p678
aa(lp679
g36
ag2
ag3
aV15
p680
aa(lp681
g42
ag3
ag4
ag10
aa(lp682
g23
ag3
ag241
ag29
aa(lp683
g36
ag42
ag3
ag12
aa(lp684
g7
ag3
ag110
ag3
aa(lp685
g7
ag12
aa(lp686
g20
ag23
ag4
aV10
p687
aa(lp688
g7
ag17
ag40
ag4
aa(lp689
g51
ag4
ag27
aa(lp690
g36
ag17
ag3
ag8
ag4
ag29
aa(lp691
g51
ag4
aV10
p692
ag29
aa(lp693
g16
ag4
ag8
aa(lp694
g36
ag2
ag12
ag29
aa(lp695
g20
aV20
p696
aa(lp697
g20
ag71
ag3
ag4
ag5
aa(lp698
g7
aV10
p699
aa(lp700
g36
ag2
ag3
aV13
p701
ag3
aa(lp702
g26
ag40
aa(lp703
g26
ag12
ag29
aa(lp704
g31
ag3
ag5
ag3
aa(lp705
g20
ag23
aV17
p706
ag3
aa(lp707
g31
ag10
aV17
p708
ag3
aa(lp709
g20
ag23
ag3
ag5
ag3
aa(lp710
a(lp711
g20
ag23
ag3
ag27
aa(lp712
g36
ag42
ag17
ag3
ag8
aa(lp713
g16
ag17
ag3
ag4
ag5
aa(lp714
g4
ag3
aV11
p715
aa(lp716
g20
ag23
ag3
ag5
ag29
aa(lp717
g82
ag3
ag10
ag3
aa(lp718
g36
ag42
ag17
ag3
ag5
aa(lp719
g23
ag8
ag4
aa(lp720
g14
ag3
ag10
ag3
aa(lp721
a(lp722
a(lp723
g42
ag3
ag10
ag3
aa(lp724
g31
ag17
ag10
ag12
aa(lp725
g31
ag3
ag12
aa(lp726
g31
ag3
ag12
aa(lp727
g14
ag3
aV14
p728
aa(lp729
g4
ag40
ag29
aa(lp730
g42
ag3
ag4
ag8
aa(lp731
g7
ag3
aV20
p732
aa(lp733
g7
ag3
ag241
aa(lp734
g42
ag10
aV10
p735
aa(lp736
g20
ag71
ag3
ag4
ag27
aa(lp737
g197
ag27
aa(lp738
g82
ag3
ag10
ag3
aa(lp739
g82
ag3
ag10
ag3
aa(lp740
g82
ag10
aV14
p741
aa(lp742
g29
ag3
ag12
ag29
aa(lp743
g197
ag3
ag8
ag4
aa(lp744
g7
ag17
ag3
ag10
aa(lp745
g36
ag2
ag3
ag10
aa(lp746
g7
ag17
ag3
ag10
aa(lp747
g14
aV16
p748
aa(lp749
g7
ag3
aV13
p750
ag3
aa(lp751
g20
ag71
ag3
ag27
aa(lp752
g82
ag3
ag10
ag3
ag29
aa(lp753
g42
ag3
ag4
ag8
ag4
aa(lp754
g16
ag4
ag40
ag3
aa(lp755
g20
ag71
ag10
ag8
aa(lp756
g20
ag71
ag10
ag12
aa(lp757
g36
ag12
aa(lp758
g20
ag3
ag4
ag12
ag29
aa(lp759
g16
ag17
ag10
aV10
p760
aa(lp761
g16
ag27
aa(lp762
g29
ag3
ag10
ag29
aa(lp763
g7
ag17
ag3
ag4
aV13
p764
ag3
aa(lp765
g2
aV10
p766
aa(lp767
g20
ag71
ag10
ag8
aa(lp768
g20
ag23
ag3
ag4
ag110
aa(lp769
g36
ag42
ag3
ag5
ag3
aa(lp770
g82
ag12
aa(lp771
g20
ag71
ag3
ag4
ag5
aa(lp772
g29
ag3
ag12
ag29
aa(lp773
g16
ag3
ag4
ag10
aa(lp774
g16
ag3
aV15
p775
aa(lp776
g82
ag3
ag10
aa(lp777
g26
ag3
ag5
aa(lp778
g16
ag3
ag5
ag3
aa(lp779
g71
ag4
ag40
aa(lp780
g36
ag17
ag3
ag10
ag3
aa(lp781
a(lp782
g82
ag12
aa(lp783
g42
ag3
aV13
p784
aa(lp785
g2
ag3
ag27
aa(lp786
g51
ag3
ag8
ag4
aa(lp787
g36
ag2
ag3
aV15
p788
aa(lp789
g26
aV10
p790
aa(lp791
g23
ag3
aV14
p792
aa(lp793
g16
ag17
ag3
ag4
ag5
aa(lp794
g197
ag3
ag5
ag29
aa(lp795
g82
ag3
ag10
ag3
aa(lp796
g7
ag17
ag3
ag10
aa(lp797
g4
ag3
aV11
p798
aa(lp799
g20
ag23
ag3
ag12
aa(lp800
g34
ag3
ag5
aa(lp801
g136
ag12
aV21
p802
aa(lp803
g245
aV10
p804
aa(lp805
g20
aV10
p806
ag3
aa(lp807
g31
ag10
aV12
p808
aa(lp809
g20
ag71
ag10
aV10
p810
aa(lp811
g36
ag12
aa(lp812
g31
ag3
ag8
aa(lp813
g36
ag3
aV14
p814
aa(lp815
g42
ag10
ag4
ag40
ag3
aa(lp816
g136
ag3
ag5
ag29
aa(lp817
g36
ag17
ag3
ag110
aa(lp818
g23
ag3
ag10
aa(lp819
g16
ag4
aV10
p820
aa(lp821
g136
ag3
ag5
ag29
aa(lp822
g42
ag10
aV10
p823
aa(lp824
g36
aV-
p825
aa(lp826
g29
ag12
ag29
aa(lp827
g20
ag4
ag40
ag4
ag29
aa(lp828
g82
ag3
ag10
aa(lp829
g20
ag71
ag10
aV10
p830
ag29
aa(lp831
g36
ag2
ag3
ag12
aa(lp832
g82
ag3
ag4
ag10
aa(lp833
g20
ag12
aa(lp834
g42
ag3
aV15
p835
aa(lp836
g197
ag3
ag4
ag27
aa(lp837
g36
ag42
ag3
ag10
ag3
aa(lp838
g29
ag40
ag29
aa(lp839
g31
ag3
ag27
aa(lp840
g82
aV11
p841
aa(lp842
a(lp843
g20
aV11
p844
aa(lp845
g20
ag27
aa(lp846
g7
ag12
aa(lp847
g82
ag3
ag10
ag3
ag29
aa(lp848
g4
ag40
aa(lp849
g36
ag42
ag17
ag3
ag5
aa(lp850
g7
ag3
aV13
p851
ag3
aa(lp852
g82
ag3
ag5
aa(lp853
g7
ag8
ag4
aa(lp854
g36
ag4
aV21
p855
aa(lp856
g82
ag3
ag10
ag3
aa(lp857
g29
ag3
ag12
ag29
aa(lp858
g16
aV11
p859
aa(lp860
g36
ag42
ag3
aV19
p861
ag4
aa(lp862
g7
ag8
ag4
aa(lp863
g197
ag8
aa(lp864
g36
aV10
p865
aa(lp866
g197
ag4
ag27
aa(lp867
g7
ag40
aa(lp868
a(lp869
g36
ag3
ag10
aa(lp870
g7
ag3
ag4
ag27
aa(lp871
g42
ag10
aV12
p872
ag3
aa(lp873
g16
ag10
ag40
ag3
aa(lp874
g16
ag17
ag3
ag241
aa(lp875
g4
aV21
p876
aa(lp877
g51
ag4
aV10
p878
ag29
aa(lp879
g36
ag2
ag17
ag3
aV13
p880
ag3
aa(lp881
g20
ag3
aV13
p882
aa(lp883
g197
aV15
p884
aa(lp885
g7
aV21
p886
aa(lp887
g31
ag17
aV21
p888
aa(lp889
g7
ag12
aa(lp890
g51
ag3
ag8
ag4
aa(lp891
g16
ag17
ag3
ag241
aa(lp892
g7
ag10
aV12
p893
ag3
aa(lp894
g36
ag42
ag17
ag3
ag10
ag4
aa(lp895
g136
aV12
p896
aa(lp897
g82
ag3
ag10
aa(lp898
g16
ag3
ag4
ag10
ag3
aa(lp899
g7
ag40
ag4
aa(lp900
g2
ag8
aa(lp901
g2
aV10
p902
aa(lp903
g2
ag12
aa(lp904
g20
ag23
ag3
ag4
ag10
aa(lp905
g36
ag17
aV10
p906
aa(lp907
g20
ag40
ag4
aa(lp908
g29
ag40
ag29
aa(lp909
g4
ag3
ag10
ag3
aa(lp910
g42
ag3
ag4
ag27
aa(lp911
g14
ag27
aa(lp912
g14
ag3
aV18
p913
aa(lp914
g36
ag42
ag17
ag3
ag241
aa(lp915
g197
ag3
ag10
ag3
ag29
aa(lp916
g16
ag17
ag3
ag4
ag5
aa(lp917
g245
ag10
ag12
aa(lp918
g26
aV12
p919
ag3
aa(lp920
g51
aV11
p921
aa(lp922
g4
ag40
aa(lp923
g31
ag3
ag110
ag3
aa(lp924
g4
ag3
aV13
p925
ag3
aa(lp926
g4
ag40
ag29
aa(lp927
g4
ag27
ag29
aa(lp928
g26
ag10
ag12
aa(lp929
g136
aV12
p930
aa(lp931
g7
ag3
aV11
p932
aa(lp933
g136
ag3
ag5
aa(lp934
g82
aV19
p935
aa(lp936
g36
ag42
ag10
ag4
ag40
aa(lp937
g36
aV16
p938
ag29
aa(lp939
g14
ag3
ag4
ag8
ag4
aa(lp940
g26
ag10
ag40
ag3
aa(lp941
g20
ag71
ag3
ag12
ag29
aa(lp942
g7
ag17
ag3
aV20
p943
aa(lp944
g36
ag3
aV19
p945
aa(lp946
g20
ag23
ag3
aV18
p947
aa(lp948
g136
ag3
ag241
aa(lp949
g23
ag3
aV13
p950
ag3
aa(lp951
g4
ag40
aa(lp952
g36
ag42
ag3
ag10
ag4
aa(lp953
g136
ag40
aa(lp954
g197
ag3
ag27
aa(lp955
g20
ag27
aa(lp956
g36
ag17
ag4
ag8
aa(lp957
g20
ag27
aa(lp958
g82
ag3
ag5
aa(lp959
g36
ag42
ag10
ag40
ag4
aa(lp960
g31
ag3
ag110
ag3
aa(lp961
g42
ag3
aV18
p962
aa(lp963
g36
ag2
ag17
ag3
ag10
aa(lp964
g2
ag3
ag10
aa(lp965
g245
ag3
ag5
aa(lp966
g136
ag3
aV18
p967
aa(lp968
g7
ag17
ag3
aV13
p969
aa(lp970
g20
ag23
ag3
ag4
ag110
aa(lp971
g7
ag4
aV10
p972
ag3
aa(lp973
g82
ag3
ag5
aa(lp974
g20
ag3
ag4
ag27
aa(lp975
g20
ag3
aV13
p976
aa(lp977
g7
ag3
ag27
aa(lp978
g245
ag12
aa(lp979
g7
ag17
aV19
p980
aa(lp981
g136
ag27
aa(lp982
g7
ag3
ag27
aa(lp983
g7
ag17
ag3
ag4
aV11
p984
aa(lp985
g82
ag3
ag110
aa(lp986
g136
ag8
aa(lp987
g20
ag71
ag3
ag10
ag3
aa(lp988
g7
ag3
aV15
p989
aa(lp990
g36
ag42
ag17
ag3
ag5
ag3
aa(lp991
g20
ag12
aa(lp992
g36
ag40
ag4
ag29
aa(lp993
g26
ag3
aV18
p994
ag3
aa(lp995
g36
ag42
ag17
ag3
ag10
ag4
aa(lp996
g20
ag71
ag10
aV12
p997
ag3
aa(lp998
g42
ag3
ag27
aa(lp999
g26
ag8
ag4
aa(lp1000
g4
ag3
ag10
ag3
aa(lp1001
g14
ag3
ag8
ag4
aa(lp1002
g136
ag3
aV16
p1003
aa(lp1004
g31
ag3
ag5
aa(lp1005
g31
ag17
ag3
ag10
aa(lp1006
g14
ag3
aV18
p1007
aa(lp1008
g42
ag10
aV10
p1009
ag29
aa(lp1010
g36
ag42
ag3
ag12
aa(lp1011
g4
ag3
ag10
ag3
aa(lp1012
g16
aV10
p1013
aa(lp1014
g7
ag3
ag241
aa(lp1015
g20
ag71
ag3
ag27
aa(lp1016
g26
aV11
p1017
aa(lp1018
g23
ag12
aa(lp1019
g7
ag17
ag40
aa(lp1020
g20
ag23
ag3
ag5
ag3
aa(lp1021
g14
ag3
aV16
p1022
aa(lp1023
g20
ag71
ag10
ag40
ag3
aa(lp1024
g7
ag17
ag5
ag3
aa(lp1025
g29
ag3
ag10
ag3
ag29
aa(lp1026
g16
ag17
ag3
ag241
aa(lp1027
g36
ag42
ag4
aV10
p1028
ag3
aa(lp1029
g20
aV20
p1030
aa(lp1031
a(lp1032
g7
ag3
ag4
ag10
ag3
aa(lp1033
g16
ag10
ag4
ag40
ag3
aa(lp1034
g31
ag17
ag3
ag10
ag3
aa(lp1035
g7
ag17
aV17
p1036
ag4
aa(lp1037
g26
ag3
aV20
p1038
aa(lp1039
g197
ag12
aa(lp1040
g14
ag3
aV20
p1041
aa(lp1042
g31
ag12
aa(lp1043
g42
ag10
ag4
ag40
ag3
aa(lp1044
g42
ag10
ag8
aa(lp1045
g7
ag17
ag3
ag4
ag10
ag3
aa(lp1046
g2
ag3
ag10
ag3
aa(lp1047
g136
ag3
ag10
ag3
aa(lp1048
g36
ag42
ag17
ag3
ag10
ag3
aa(lp1049
g16
ag17
ag4
aV10
p1050
aa(lp1051
g82
ag3
ag10
ag3
ag29
aa(lp1052
g26
ag3
ag27
aa(lp1053
g36
ag17
ag4
ag8
aa(lp1054
g16
aV21
p1055
aa(lp1056
g136
ag3
ag10
ag3
aa(lp1057
g34
ag27
aa(lp1058
g51
aV11
p1059
aa(lp1060
g7
ag3
aV11
p1061
aa(lp1062
g36
ag17
ag3
ag5
aa(lp1063
g23
ag40
ag29
aa(lp1064
g29
ag8
ag29
aa(lp1065
g29
ag3
ag5
ag29
aa(lp1066
g7
ag17
ag124
aa(lp1067
g31
ag17
ag3
ag10
aa(lp1068
g16
ag27
aa(lp1069
g82
ag3
ag5
aa(lp1070
g20
ag23
aV17
p1071
ag3
aa(lp1072
g36
ag2
ag3
aV14
p1073
aa(lp1074
g71
ag3
ag5
ag29
aa(lp1075
g29
ag3
ag12
ag29
aa(lp1076
g20
ag3
ag5
aa(lp1077
g197
ag3
ag10
ag4
aa(lp1078
g82
ag3
ag10
ag3
aa(lp1079
g42
ag3
ag4
ag12
aa(lp1080
g136
ag27
ag29
aa(lp1081
g29
ag40
ag29
aa(lp1082
g31
ag10
aV12
p1083
aa(lp1084
g197
ag3
aV16
p1085
ag29
aa(lp1086
g20
ag71
ag3
ag27
aa(lp1087
g26
ag3
aV18
p1088
aa(lp1089
g3
aV11
p1090
aa(lp1091
g14
ag3
ag10
aa(lp1092
g7
ag3
ag4
aV13
p1093
ag3
aa(lp1094
g245
ag3
ag10
ag3
aa(lp1095
g23
ag8
ag4
ag29
aa(lp1096
g29
ag3
ag12
ag29
aa(lp1097
g20
ag71
ag3
ag110
aa(lp1098
g36
ag42
ag3
ag4
ag12
aa(lp1099
g16
ag12
aa(lp1100
g16
ag17
ag3
ag241
aa(lp1101
g36
ag42
ag17
ag3
ag5
aa(lp1102
g4
ag3
ag10
ag3
ag29
aa(lp1103
g36
ag17
ag3
ag5
aa(lp1104
g36
ag17
ag3
ag5
aa(lp1105
g36
ag17
ag3
ag110
aa(lp1106
g16
ag12
aa(lp1107
g16
ag3
aV23
p1108
aa(lp1109
g82
ag8
aa(lp1110
g4
ag3
aV14
p1111
aa(lp1112
g7
ag3
ag27
aa(lp1113
g16
ag17
ag8
ag4
aa(lp1114
g2
ag12
aa(lp1115
g16
ag3
ag10
ag4
ag29
aa(lp1116
g7
ag3
aV16
p1117
aa(lp1118
g82
ag3
aV11
p1119
aa(lp1120
g31
aV11
p1121
aa(lp1122
g16
ag17
ag4
aV15
p1123
aa(lp1124
g7
ag17
ag3
ag4
aV13
p1125
ag3
aa(lp1126
g16
ag3
ag241
ag29
aa(lp1127
g36
ag42
ag3
ag8
ag4
aa(lp1128
g29
ag3
ag10
ag29
aa(lp1129
g23
ag3
ag10
ag29
aa(lp1130
g245
ag3
ag10
ag4
aa(lp1131
g42
ag10
aV12
p1132
ag3
aa(lp1133
g36
ag10
aV16
p1134
aa(lp1135
g7
ag3
ag110
ag3
aa(lp1136
g31
ag17
ag3
ag10
aa(lp1137
g16
ag10
aV14
p1138
aa(lp1139
g7
ag10
aV12
p1140
ag3
aa(lp1141
g36
ag2
ag40
ag4
ag29
aa(lp1142
g16
ag10
aV17
p1143
ag3
aa(lp1144
g20
ag71
ag10
ag12
aa(lp1145
g136
aV10
p1146
ag29
aa(lp1147
g136
aV10
p1148
aa(lp1149
g42
ag3
ag8
ag4
aa(lp1150
g136
aV10
p1151
ag29
aa(lp1152
g16
ag4
aV10
p1153
ag29
aa(lp1154
g36
ag2
ag17
ag3
ag5
ag29
aa(lp1155
g36
ag42
ag10
ag8
ag4
aa(lp1156
g197
ag8
aa(lp1157
g20
ag40
ag4
aa(lp1158
g36
ag42
ag3
ag10
ag3
aa(lp1159
g34
ag27
aa(lp1160
g36
ag2
ag27
ag29
aa(lp1161
g36
ag2
ag8
ag4
ag29
aa(lp1162
g20
ag71
ag10
aV10
p1163
ag3
aa(lp1164
g14
ag3
aV16
p1165
aa(lp1166
g197
ag10
aV16
p1167
aa(lp1168
g36
ag42
ag3
ag8
aa(lp1169
g82
ag3
ag10
ag3
ag29
aa(lp1170
g20
aV10
p1171
ag3
aa(lp1172
g34
ag8
ag29
aa(lp1173
g36
ag42
ag17
ag3
ag8
aa(lp1174
g82
ag3
ag10
ag3
ag29
aa(lp1175
g7
ag17
ag3
aV15
p1176
aa(lp1177
g36
ag42
ag17
ag3
ag5
aa(lp1178
g36
ag2
ag17
ag3
ag10
aa(lp1179
g2
ag3
ag10
ag3
aa(lp1180
g136
aV10
p1181
ag29
aa(lp1182
g7
ag17
ag3
ag4
aV13
p1183
ag3
aa(lp1184
g7
ag3
aV15
p1185
aa(lp1186
g51
ag4
ag124
aa(lp1187
g7
ag40
aa(lp1188
g197
ag3
ag5
ag29
aa(lp1189
g36
ag42
ag17
ag3
ag8
ag4
aa(lp1190
g7
ag17
ag40
ag4
aa(lp1191
g197
ag3
ag10
ag3
aa(lp1192
g14
ag3
aV13
p1193
ag3
aa(lp1194
g29
ag3
ag12
ag29
aa(lp1195
g42
ag3
aV19
p1196
aa(lp1197
g4
aV10
p1198
aa(lp1199
a(lp1200
g14
ag3
ag4
ag10
ag3
aa(lp1201
g7
ag3
aV13
p1202
aa(lp1203
g197
ag10
ag12
aa(lp1204
g7
ag3
ag27
aa(lp1205
g4
ag3
ag10
aa(lp1206
g82
ag10
aV10
p1207
ag3
aa(lp1208
g71
ag3
ag5
ag29
aa(lp1209
g7
ag3
aV19
p1210
aa(lp1211
g71
ag3
ag27
aa(lp1212
g20
ag71
ag3
ag110
aa(lp1213
g26
aV20
p1214
aa(lp1215
g16
ag10
ag40
ag4
aa(lp1216
g82
ag3
ag10
ag3
ag29
aa(lp1217
g16
aV11
p1218
aa(lp1219
g36
ag17
ag4
ag40
ag3
aa(lp1220
g16
ag12
aa(lp1221
g7
ag3
aV18
p1222
ag29
aa(lp1223
g36
ag17
aV19
p1224
aa(lp1225
g14
ag10
aV17
p1226
ag3
aa(lp1227
g36
ag17
aV16
p1228
aa(lp1229
g36
ag2
ag17
ag27
aa(lp1230
g20
ag3
aV13
p1231
aa(lp1232
g34
aV21
p1233
aa(lp1234
g36
ag2
ag3
ag12
aa(lp1235
g20
ag4
ag27
aa(lp1236
g7
ag17
ag3
aV18
p1237
aa(lp1238
g7
ag3
aV20
p1239
aa(lp1240
g4
ag381
aa(lp1241
g82
ag3
aV11
p1242
aa(lp1243
g16
ag17
ag4
aV16
p1244
aa(lp1245
g2
ag3
ag4
ag5
aa(lp1246
g7
ag40
aa(lp1247
g7
ag4
aV21
p1248
aa(lp1249
g20
ag71
ag3
ag10
ag3
aa(lp1250
g20
ag3
ag27
aa(lp1251
g7
ag3
aV20
p1252
aa(lp1253
g197
ag3
ag10
aa(lp1254
g34
ag3
ag10
ag4
aa(lp1255
g36
ag4
ag40
aa(lp1256
g26
ag12
aa(lp1257
g14
ag3
ag241
aa(lp1258
g136
ag3
ag10
ag3
ag29
aa(lp1259
g7
ag3
ag10
aa(lp1260
g36
ag3
aV13
p1261
ag3
aa(lp1262
g36
ag42
ag17
ag3
ag27
aa(lp1263
g7
ag12
aa(lp1264
g7
ag3
aV11
p1265
aa(lp1266
g20
ag23
ag3
ag10
aa(lp1267
g136
ag381
aa(lp1268
g36
ag2
ag17
ag3
aV11
p1269
aa(lp1270
g36
ag42
ag17
ag3
ag4
ag5
ag29
aa(lp1271
g4
aV10
p1272
ag29
aa(lp1273
g82
ag12
aa(lp1274
g7
ag4
aV15
p1275
aa(lp1276
g16
aV10
p1277
aa(lp1278
g16
ag10
aV10
p1279
aa(lp1280
g36
ag3
ag110
aa(lp1281
g36
ag2
ag17
ag3
ag10
ag3
aa(lp1282
g36
ag17
ag3
ag10
ag3
aa(lp1283
g7
ag3
ag110
ag3
aa(lp1284
g7
ag17
ag10
aV16
p1285
aa(lp1286
g4
ag10
aV10
p1287
aa(lp1288
g29
ag3
ag5
ag3
aa(lp1289
g36
ag17
ag40
ag3
aa(lp1290
g136
ag3
aV13
p1291
ag3
aa(lp1292
g16
ag17
ag4
ag12
aa(lp1293
g31
ag17
ag3
ag10
aa(lp1294
g16
ag12
aa(lp1295
g197
ag4
ag8
aa(lp1296
g16
ag10
aV21
p1297
aa(lp1298
g16
ag17
ag3
ag5
aa(lp1299
g16
ag17
ag8
aa(lp1300
g29
ag3
ag27
ag29
aa(lp1301
g20
ag71
ag3
ag10
ag29
aa(lp1302
g20
ag71
ag10
aV17
p1303
ag3
aa(lp1304
g36
ag17
aV10
p1305
aa(lp1306
g34
ag3
ag4
ag110
aa(lp1307
g4
ag3
ag10
ag3
ag29
aa(lp1308
g31
ag17
aV10
p1309
aa(lp1310
g31
ag12
ag29
aa(lp1311
g36
ag42
ag17
ag10
ag40
ag4
aa(lp1312
g16
ag4
ag8
aa(lp1313
g20
ag12
aa(lp1314
g20
ag27
aa(lp1315
g7
ag3
aV19
p1316
ag29
aa(lp1317
g197
ag4
ag12
ag29
aa(lp1318
a(lp1319
g26
ag10
aV17
p1320
aa(lp1321
g36
ag2
ag17
ag4
ag27
aa(lp1322
g36
ag2
ag17
ag3
ag10
aa(lp1323
g36
ag17
ag3
ag5
aa(lp1324
a(lp1325
g36
ag42
ag10
ag12
aa(lp1326
g31
ag10
aV10
p1327
ag3
aa(lp1328
g23
ag8
ag4
ag29
aa(lp1329
g7
ag40
aa(lp1330
g20
ag23
ag3
aV15
p1331
aa(lp1332
g7
ag17
ag40
ag4
aa(lp1333
a(lp1334
g34
ag10
aV10
p1335
ag29
aa(lp1336
g136
aV10
p1337
aa(lp1338
g197
ag3
ag10
ag4
aa(lp1339
g20
ag23
ag3
aV18
p1340
ag3
aa(lp1341
g31
ag12
aa(lp1342
g7
ag3
aV11
p1343
aa(lp1344
g20
aV17
p1345
aa(lp1346
g20
ag71
ag10
ag4
ag40
aa(lp1347
g7
ag40
ag4
aa(lp1348
g36
ag42
ag17
ag3
ag5
ag3
aa(lp1349
g7
ag3
ag5
aa(lp1350
g16
aV22
p1351
aa(lp1352
g2
ag40
aa(lp1353
g23
ag40
ag4
aa(lp1354
g14
aV17
p1355
ag3
aa(lp1356
g34
ag10
aV12
p1357
aa(lp1358
g42
ag10
aV17
p1359
aa(lp1360
g23
ag3
aV13
p1361
ag3
aa(lp1362
g36
ag42
ag3
ag27
aa(lp1363
g51
ag4
aV20
p1364
aa(lp1365
g36
ag2
ag3
aV15
p1366
aa(lp1367
a(lp1368
g7
ag3
ag8
ag4
aa(lp1369
g7
ag4
ag8
aa(lp1370
g36
ag42
ag17
ag10
aV16
p1371
aa(lp1372
g26
aV12
p1373
aa(lp1374
g7
ag17
ag40
ag4
aa(lp1375
g29
ag3
ag10
ag3
ag29
aa(lp1376
g20
ag71
aV21
p1377
aa(lp1378
g16
aV10
p1379
aa(lp1380
g71
ag3
ag5
aa(lp1381
g36
ag42
ag10
ag4
ag12
aa(lp1382
g20
ag40
ag4
ag29
aa(lp1383
g20
ag23
ag8
ag4
aa(lp1384
g16
ag4
ag12
ag29
aa(lp1385
g36
ag42
ag3
ag8
ag4
aa(lp1386
g16
ag10
ag40
aa(lp1387
g4
ag381
aa(lp1388
g31
aV19
p1389
aa(lp1390
g16
ag4
ag8
aa(lp1391
g7
ag17
ag3
aV18
p1392
aa(lp1393
g7
ag17
ag3
ag10
aa(lp1394
g2
ag40
ag4
aa(lp1395
g197
ag3
ag5
ag3
aa(lp1396
g36
ag42
ag3
aV14
p1397
aa(lp1398
g42
ag3
ag12
aa(lp1399
g34
ag3
ag10
ag4
aa(lp1400
g14
ag3
aV15
p1401
aa(lp1402
g36
ag8
ag4
aa(lp1403
g7
ag3
ag27
aa(lp1404
g20
aV11
p1405
aa(lp1406
g16
ag17
ag3
ag10
ag3
aa(lp1407
g36
ag2
ag17
ag3
aV13
p1408
ag3
aa(lp1409
g20
ag23
ag3
aV13
p1410
aa(lp1411
g136
ag3
ag5
aa(lp1412
g26
ag3
ag10
aa(lp1413
g20
aV20
p1414
aa(lp1415
g36
ag3
aV11
p1416
aa(lp1417
g7
ag3
aV13
p1418
aa(lp1419
g36
ag17
ag3
ag27
aa(lp1420
g36
ag42
ag3
ag27
aa(lp1421
g197
ag4
ag27
aa(lp1422
g16
ag17
ag10
ag8
ag4
aa(lp1423
g20
ag71
ag3
ag10
ag3
aa(lp1424
g31
ag27
aa(lp1425
g36
ag2
ag17
ag40
ag4
aa(lp1426
g36
ag4
ag40
ag3
aa(lp1427
g16
ag17
ag3
ag5
aa(lp1428
g4
ag3
aV11
p1429
aa(lp1430
g136
ag3
ag10
ag3
aa(lp1431
g7
ag3
ag4
aV13
p1432
aa(lp1433
g7
ag3
aV14
p1434
aa(lp1435
g29
ag12
ag29
aa(lp1436
g7
ag3
ag5
aa(lp1437
g20
ag8
ag4
aa(lp1438
g7
ag17
ag40
ag4
aa(lp1439
g20
ag23
ag3
aV20
p1440
aa(lp1441
g20
ag3
aV15
p1442
aa(lp1443
g20
aV10
p1444
aa(lp1445
g7
aV15
p1446
aa(lp1447
g20
ag71
ag3
ag8
aa(lp1448
g197
ag3
ag10
ag3
aa(lp1449
g20
ag71
ag3
ag4
ag10
aa(lp1450
g7
ag17
ag3
ag27
aa(lp1451
g7
ag3
ag110
ag3
aa(lp1452
g7
ag27
aa(lp1453
g245
ag10
ag12
aa(lp1454
g29
ag3
ag10
ag29
aa(lp1455
g36
ag42
ag17
ag3
ag4
ag5
aa(lp1456
g34
aV11
p1457
aa(lp1458
g23
ag3
ag10
aa(lp1459
g7
ag27
aa(lp1460
g20
ag23
ag3
aV18
p1461
ag3
aa(lp1462
g31
ag17
ag40
ag3
aa(lp1463
g82
ag3
ag10
aa(lp1464
g36
ag42
ag17
ag3
ag4
ag5
ag29
aa(lp1465
g82
ag3
ag4
ag10
ag3
aa(lp1466
g20
ag23
ag3
ag5
aa(lp1467
g29
ag12
ag29
aa(lp1468
g71
ag3
ag5
aa(lp1469
g31
ag10
aV21
p1470
aa(lp1471
g4
ag3
aV11
p1472
aa(lp1473
g197
ag27
aa(lp1474
g36
ag2
ag3
aV15
p1475
aa(lp1476
g20
ag8
ag4
aa(lp1477
g36
ag2
ag17
ag3
ag12
aa(lp1478
g197
ag3
ag10
ag3
aa(lp1479
g16
ag3
aV21
p1480
aa(lp1481
g82
aV10
p1482
ag29
aa(lp1483
g36
ag3
ag10
ag3
aa(lp1484
g16
ag17
ag3
ag8
ag4
aa(lp1485
g136
aV17
p1486
aa(lp1487
g51
ag4
aV10
p1488
aa(lp1489
g34
ag3
ag5
ag29
aa(lp1490
g197
ag3
ag10
ag3
ag29
aa(lp1491
g20
ag23
ag3
ag10
aa(lp1492
g26
ag3
aV13
p1493
ag3
aa(lp1494
g20
aV20
p1495
aa(lp1496
g36
ag3
ag5
ag3
aa(lp1497
g26
ag10
ag40
aa(lp1498
g14
ag3
ag10
ag3
aa(lp1499
g26
ag40
aa(lp1500
g20
ag3
aV20
p1501
aa(lp1502
g20
ag23
ag3
ag241
aa(lp1503
g26
ag3
ag27
aa(lp1504
g82
ag3
ag241
aa(lp1505
g26
ag40
aa(lp1506
g7
ag40
aa(lp1507
g31
ag3
aV23
p1508
aa(lp1509
g20
ag3
aV14
p1510
aa(lp1511
g7
ag12
aa(lp1512
g7
ag17
ag3
aV19
p1513
ag29
aa(lp1514
g7
ag3
ag4
aV15
p1515
aa(lp1516
g16
ag4
aV10
p1517
aa(lp1518
g34
ag12
ag29
aa(lp1519
g136
ag3
ag10
ag3
aa(lp1520
g36
ag42
ag3
aV14
p1521
aa(lp1522
g2
ag40
ag4
aa(lp1523
g36
ag17
ag27
aa(lp1524
g36
aV22
p1525
aa(lp1526
g16
ag12
aa(lp1527
g14
ag27
aa(lp1528
g7
ag17
ag40
ag4
aa(lp1529
g16
ag12
aa(lp1530
g197
ag3
ag10
ag3
aa(lp1531
g31
ag8
aa(lp1532
g16
ag3
ag10
ag29
aa(lp1533
g7
ag3
ag10
aa(lp1534
g36
ag2
ag4
ag12
aa(lp1535
g20
ag3
aV13
p1536
aa(lp1537
g7
ag17
ag3
ag4
ag10
aa(lp1538
g16
aV11
p1539
aa(lp1540
g20
ag3
aV13
p1541
aa(lp1542
g71
ag3
aV23
p1543
aa(lp1544
g31
ag10
aV10
p1545
ag3
aa(lp1546
g16
ag10
aV14
p1547
aa(lp1548
a(lp1549
g20
ag3
aV15
p1550
aa(lp1551
g20
ag71
ag3
ag5
aa(lp1552
g71
ag3
ag4
ag27
aa(lp1553
g71
ag3
ag4
ag27
aa(lp1554
g20
ag3
ag5
aa(lp1555
g20
aV17
p1556
ag4
aa(lp1557
g29
ag3
ag5
ag3
aa(lp1558
a(lp1559
g16
ag12
aa(lp1560
g42
ag3
aV13
p1561
ag3
aa(lp1562
g4
ag3
aV13
p1563
aa(lp1564
g7
ag3
ag110
ag3
aa(lp1565
g36
ag42
ag17
ag3
ag8
ag4
aa(lp1566
g7
ag3
aV15
p1567
aa(lp1568
g36
ag2
ag3
ag4
ag5
aa(lp1569
g36
ag4
ag40
ag3
aa(lp1570
g31
ag3
ag27
aa(lp1571
g36
ag2
ag17
ag3
ag4
ag27
aa(lp1572
g36
ag42
ag3
ag10
ag3
aa(lp1573
g26
aV17
p1574
aa(lp1575
g26
aV17
p1576
aa(lp1577
g23
ag8
ag4
aa(lp1578
g7
ag3
ag110
ag3
aa(lp1579
g7
ag3
ag4
ag27
aa(lp1580
g14
aV16
p1581
aa(lp1582
g20
ag3
ag10
ag3
aa(lp1583
g136
ag3
ag12
aa(lp1584
g16
ag17
aV10
p1585
aa(lp1586
g7
ag8
aa(lp1587
g42
ag3
ag27
aa(lp1588
g29
ag3
ag10
ag3
ag29
aa(lp1589
g20
aV11
p1590
aa(lp1591
g7
ag17
ag8
ag4
ag29
aa(lp1592
g20
ag3
ag5
aa(lp1593
g71
ag10
aV19
p1594
ag4
aa(lp1595
a(lp1596
g51
ag12
aa(lp1597
g14
ag3
ag4
aV21
p1598
aa(lp1599
g29
ag27
ag29
aa(lp1600
g42
ag3
ag110
aa(lp1601
g7
ag3
aV20
p1602
aa(lp1603
g23
ag12
ag29
aa(lp1604
g31
ag17
ag3
ag110
aa(lp1605
g16
ag17
ag10
ag40
aa(lp1606
g42
ag3
ag4
ag8
aa(lp1607
g4
ag10
aV10
p1608
aa(lp1609
g20
ag23
aV19
p1610
aa(lp1611
g31
ag10
aV21
p1612
aa(lp1613
g16
ag17
ag3
ag4
ag5
aa(lp1614
g16
ag3
ag8
ag4
aa(lp1615
g245
ag4
aV22
p1616
aa(lp1617
g16
ag40
ag4
aa(lp1618
g82
ag3
ag10
ag3
ag29
aa(lp1619
g2
ag3
aV13
p1620
ag3
aa(lp1621
g20
ag23
ag8
ag4
aa(lp1622
g20
ag23
ag3
ag12
ag29
aa(lp1623
g36
ag42
ag10
ag12
aa(lp1624
g36
ag42
ag10
ag40
ag4
aa(lp1625
g20
ag71
ag10
aV21
p1626
aa(lp1627
g51
ag4
aV20
p1628
aa(lp1629
g14
ag3
ag4
ag10
aa(lp1630
g23
ag3
ag110
aa(lp1631
g82
ag10
ag8
ag4
aa(lp1632
g136
ag3
ag12
aa(lp1633
g136
ag3
ag12
aa(lp1634
a(lp1635
g36
ag42
ag17
ag10
ag8
aa(lp1636
g51
ag4
ag40
ag29
aa(lp1637
g20
ag71
ag3
ag4
ag27
aa(lp1638
g23
ag3
ag10
aa(lp1639
g7
ag3
ag10
aa(lp1640
g31
ag17
ag3
aV19
p1641
aa(lp1642
g36
ag2
ag40
ag3
aa(lp1643
g4
ag3
aV20
p1644
aa(lp1645
a(lp1646
g42
ag3
ag10
ag4
aa(lp1647
g51
ag27
ag29
aa(lp1648
g7
ag17
ag3
ag12
aa(lp1649
g4
ag40
aa(lp1650
g16
ag17
ag4
ag40
ag3
aa(lp1651
g136
ag40
aa(lp1652
g36
ag8
aa(lp1653
g36
ag17
ag3
ag5
ag3
aa(lp1654
g82
ag3
aV23
p1655
aa(lp1656
g20
ag71
ag3
ag110
aa(lp1657
g4
ag8
ag29
aa(lp1658
g14
ag3
aV18
p1659
aa(lp1660
g4
ag10
ag40
ag29
aa(lp1661
g16
ag3
ag5
aa(lp1662
g7
ag3
ag10
aa(lp1663
g20
ag23
ag3
ag4
ag5
aa(lp1664
g4
ag3
aV18
p1665
aa(lp1666
g20
ag3
aV13
p1667
aa(lp1668
g197
ag3
ag10
ag3
aa(lp1669
g31
ag17
aV10
p1670
aa(lp1671
g51
aV10
p1672
aa(lp1673
g16
ag4
ag40
ag3
aa(lp1674
g14
ag3
aV19
p1675
aa(lp1676
g31
ag17
ag3
ag10
aa(lp1677
g7
ag17
ag3
ag5
aa(lp1678
g16
ag3
ag110
aa(lp1679
g36
ag42
ag3
ag10
ag4
aa(lp1680
g20
ag71
ag3
ag4
ag5
ag29
aa(lp1681
g36
ag42
ag17
ag10
ag8
aa(lp1682
g34
ag4
ag12
aa(lp1683
g197
ag3
ag12
ag29
aa(lp1684
g36
ag8
ag4
aa(lp1685
g36
ag42
ag10
ag8
ag4
aa(lp1686
g36
ag42
ag3
ag27
aa(lp1687
g20
ag3
aV13
p1688
aa(lp1689
g71
ag3
aV13
p1690
aa(lp1691
g16
ag17
aV17
p1692
ag3
aa(lp1693
g16
ag3
ag10
ag29
aa(lp1694
g7
ag17
aV10
p1695
aa(lp1696
g31
ag10
aV10
p1697
aa(lp1698
g71
ag10
ag40
aa(lp1699
g42
ag3
ag4
ag12
aa(lp1700
g36
ag17
ag3
ag4
ag5
aa(lp1701
g20
ag71
ag3
ag110
aa(lp1702
g7
aV21
p1703
aa(lp1704
g31
ag3
ag12
aa(lp1705
g36
ag2
ag17
ag12
aa(lp1706
g4
ag8
aa(lp1707
g29
ag8
ag29
aa(lp1708
g4
ag12
aa(lp1709
g51
ag4
ag40
aa(lp1710
g197
ag3
ag5
aa(lp1711
g197
ag3
ag5
aa(lp1712
g7
ag3
ag10
ag3
aa(lp1713
g42
ag3
ag4
aV18
p1714
aa(lp1715
g136
aV17
p1716
ag3
aa(lp1717
g20
ag23
ag3
ag12
aa(lp1718
g31
aV10
p1719
aa(lp1720
g20
ag71
ag3
ag27
aa(lp1721
g31
ag17
ag3
ag110
aa(lp1722
g36
ag2
ag3
ag10
ag3
aa(lp1723
g36
ag2
ag17
ag3
ag10
aa(lp1724
g7
ag3
ag4
ag12
aa(lp1725
g36
ag2
ag40
ag4
aa(lp1726
g20
ag71
ag3
ag4
aV16
p1727
aa(lp1728
g36
ag8
aa(lp1729
g4
aV10
p1730
aa(lp1731
g36
ag42
ag3
ag241
aa(lp1732
g36
ag2
ag17
ag27
aa(lp1733
g197
ag8
aa(lp1734
g16
ag12
aa(lp1735
g16
ag3
ag10
ag4
ag29
aa(lp1736
g36
ag17
ag12
aa(lp1737
g7
aV21
p1738
aa(lp1739
g36
ag3
ag5
ag3
aa(lp1740
g51
ag27
ag29
aa(lp1741
g34
ag3
ag5
ag29
aa(lp1742
g7
aV15
p1743
aa(lp1744
g36
ag4
ag40
aa(lp1745
g16
ag3
ag8
ag4
aa(lp1746
a(lp1747
g4
ag40
aa(lp1748
g36
ag42
ag3
ag10
ag3
aa(lp1749
g7
ag3
ag241
aa(lp1750
g42
ag3
ag4
aV16
p1751
aa(lp1752
g36
ag12
aa(lp1753
g36
ag12
aa(lp1754
g16
ag40
ag4
aa(lp1755
g7
ag3
ag27
aa(lp1756
g20
ag3
aV18
p1757
ag3
aa(lp1758
g36
ag4
ag40
aa(lp1759
g7
ag3
ag10
ag3
aa(lp1760
g36
ag2
ag17
ag3
ag10
aa(lp1761
g26
ag3
ag241
aa(lp1762
g23
ag3
aV13
p1763
aa(lp1764
a(lp1765
g20
ag3
aV18
p1766
aa(lp1767
g20
ag71
ag3
aV20
p1768
aa(lp1769
g36
ag8
ag4
aa(lp1770
g16
ag3
ag5
aa(lp1771
g31
ag17
ag3
aV18
p1772
aa(lp1773
g7
ag27
aa(lp1774
g20
ag71
ag3
ag8
ag4
aa(lp1775
g36
ag2
ag3
ag10
ag29
aa(lp1776
g4
ag3
aV18
p1777
aa(lp1778
g20
aV17
p1779
ag3
aa(lp1780
g20
ag71
ag3
aV15
p1781
aa(lp1782
a(lp1783
g16
ag17
aV10
p1784
aa(lp1785
g7
ag17
aV11
p1786
aa(lp1787
g23
ag3
ag8
ag29
aa(lp1788
g20
ag23
ag27
aa(lp1789
g26
ag3
aV18
p1790
aa(lp1791
g26
ag10
aV14
p1792
aa(lp1793
g16
ag4
ag40
ag3
aa(lp1794
g16
ag4
ag40
ag3
aa(lp1795
g31
aV10
p1796
aa(lp1797
g36
ag2
ag3
ag4
ag10
ag3
aa(lp1798
g7
aV19
p1799
aa(lp1800
g197
ag3
ag12
ag29
aa(lp1801
g16
aV11
p1802
aa(lp1803
g2
ag12
aa(lp1804
g36
ag42
ag3
ag241
ag29
aa(lp1805
g36
ag17
aV16
p1806
ag29
aa(lp1807
g36
ag42
ag3
ag8
aa(lp1808
g34
ag10
ag8
ag4
aa(lp1809
g245
ag4
ag40
aa(lp1810
g36
ag42
ag3
aV15
p1811
aa(lp1812
g36
ag3
ag10
ag3
aa(lp1813
g7
ag17
ag3
ag4
ag5
aa(lp1814
g51
ag4
ag40
ag29
aa(lp1815
g4
ag40
ag29
aa(lp1816
g36
ag42
ag3
ag5
ag29
aa(lp1817
g4
ag12
aa(lp1818
g36
ag42
ag17
ag3
aV18
p1819
aa(lp1820
g36
ag2
ag3
ag110
ag3
aa(lp1821
g2
ag3
ag4
ag12
aa(lp1822
g51
ag12
aa(lp1823
g42
ag3
ag27
aa(lp1824
g20
ag71
ag3
ag4
ag10
ag3
aa(lp1825
g36
ag2
ag17
ag3
ag4
ag27
aa(lp1826
g23
ag3
ag27
ag29
aa(lp1827
g7
ag17
ag8
ag4
ag29
aa(lp1828
g7
ag17
ag3
ag29
aa(lp1829
g82
aV19
p1830
aa(lp1831
g7
ag12
aa(lp1832
g7
aV14
p1833
aa(lp1834
g36
ag42
ag17
ag3
ag5
aa(lp1835
g14
ag3
ag27
aa(lp1836
g31
ag10
ag8
ag4
aa(lp1837
g16
ag3
ag10
ag4
ag29
aa(lp1838
g34
ag10
ag40
aa(lp1839
g136
aV17
p1840
ag3
aa(lp1841
g136
aV17
p1842
ag3
aa(lp1843
g4
ag40
aa(lp1844
g7
ag3
ag241
aa(lp1845
g42
ag3
ag10
ag3
aa(lp1846
a(lp1847
g36
ag42
ag17
ag3
ag12
aa(lp1848
g26
aV10
p1849
aa(lp1850
g7
ag17
ag3
ag10
ag3
aa(lp1851
g7
ag3
aV18
p1852
aa(lp1853
g20
ag3
aV13
p1854
aa(lp1855
g7
ag17
ag10
aV14
p1856
aa(lp1857
g26
ag12
aa(lp1858
g16
ag8
ag4
ag29
aa(lp1859
g29
ag12
aa(lp1860
g36
ag17
aV16
p1861
aa(lp1862
g197
ag10
ag8
ag4
aa(lp1863
g20
ag71
ag10
ag40
ag3
aa(lp1864
g16
ag17
ag3
ag4
ag5
aa(lp1865
g2
ag3
aV18
p1866
ag3
aa(lp1867
g36
ag42
ag3
aV20
p1868
aa(lp1869
g36
ag17
ag3
ag5
aa(lp1870
g7
ag3
aV20
p1871
aa(lp1872
g245
aV24
p1873
aa(lp1874
g29
ag3
ag27
ag29
aa(lp1875
g20
ag23
ag3
ag4
ag110
aa(lp1876
g7
ag17
ag3
aV14
p1877
aa(lp1878
a(lp1879
g197
ag3
aV18
p1880
ag29
aa(lp1881
g7
ag17
ag3
aV19
p1882
ag29
aa(lp1883
g36
ag42
ag17
ag10
aV10
p1884
ag3
aa(lp1885
g7
ag3
ag110
ag3
aa(lp1886
a(lp1887
g16
ag3
ag110
aa(lp1888
g36
ag40
ag3
aa(lp1889
g7
ag8
aa(lp1890
a(lp1891
g20
ag3
ag4
ag27
aa(lp1892
g29
ag8
ag4
ag29
aa(lp1893
g42
ag3
ag5
aa(lp1894
g82
ag3
ag10
ag3
ag29
aa(lp1895
g36
ag42
ag3
aV15
p1896
aa(lp1897
g23
ag3
ag110
aa(lp1898
g2
ag3
aV20
p1899
aa(lp1900
g51
ag4
aV10
p1901
ag29
aa(lp1902
g36
ag17
ag3
ag27
aa(lp1903
g7
ag3
aV18
p1904
ag29
aa(lp1905
g31
ag17
aV14
p1906
aa(lp1907
g31
ag17
ag3
ag10
aa(lp1908
g7
aV19
p1909
aa(lp1910
g16
ag3
ag10
ag4
aa(lp1911
g20
ag23
ag3
ag4
ag241
aa(lp1912
g23
ag4
aV10
p1913
ag29
aa(lp1914
g20
ag3
ag10
ag3
aa(lp1915
g20
aV17
p1916
ag4
aa(lp1917
g23
ag40
ag4
ag29
aa(lp1918
g36
ag2
ag40
ag4
ag29
aa(lp1919
g36
ag3
ag110
aa(lp1920
g23
ag10
ag40
ag3
ag29
aa(lp1921
g20
ag3
aV13
p1922
ag3
aa(lp1923
g36
aV21
p1924
aa(lp1925
g34
ag3
ag8
ag4
aa(lp1926
g7
ag3
ag10
ag3
aa(lp1927
g7
ag3
ag10
ag3
aa(lp1928
g26
ag3
aV15
p1929
aa(lp1930
g82
aV17
p1931
ag4
aa(lp1932
g7
ag40
ag3
aa(lp1933
g16
ag3
ag4
ag110
ag3
aa(lp1934
g2
ag3
aV20
p1935
aa(lp1936
g197
ag3
ag10
ag4
aa(lp1937
g36
ag42
ag17
ag3
ag4
ag8
ag29
aa(lp1938
g20
aV17
p1939
ag4
aa(lp1940
g82
ag3
ag10
aa(lp1941
g82
ag3
ag12
aa(lp1942
g29
ag3
ag5
ag29
aa(lp1943
g26
ag3
ag110
aa(lp1944
g7
ag40
ag3
aa(lp1945
g36
ag42
ag17
ag10
ag40
aa(lp1946
g4
aV21
p1947
aa(lp1948
g136
ag3
ag12
aa(lp1949
g14
ag3
ag27
aa(lp1950
g14
ag3
ag27
aa(lp1951
g23
ag3
ag10
ag29
aa(lp1952
g7
aV19
p1953
aa(lp1954
g20
ag27
aa(lp1955
g20
ag23
ag27
ag29
aa(lp1956
g7
ag3
aV13
p1957
ag3
aa(lp1958
g36
ag42
ag17
ag3
ag4
ag10
aa(lp1959
g16
ag17
ag3
ag8
ag4
aa(lp1960
g197
ag4
ag27
aa(lp1961
g20
ag3
ag10
ag3
aa(lp1962
g82
ag3
ag10
aa(lp1963
g26
aV10
p1964
aa(lp1965
g26
aV14
p1966
aa(lp1967
g2
ag27
aa(lp1968
g197
ag3
ag5
ag29
aa(lp1969
g26
ag3
ag10
aa(lp1970
g36
ag2
ag8
ag4
aa(lp1971
g7
ag40
aa(lp1972
g14
ag3
aV23
p1973
aa(lp1974
g7
ag3
ag4
aV13
p1975
aa(lp1976
g16
ag27
ag29
aa(lp1977
g36
ag42
ag17
ag10
ag8
ag4
aa(lp1978
g136
ag3
ag10
ag3
aa(lp1979
g82
ag3
ag10
ag3
aa(lp1980
g16
ag3
ag27
aa(lp1981
g16
ag17
ag8
aa(lp1982
g36
ag2
aV22
p1983
aa(lp1984
g36
ag42
ag17
ag3
ag4
ag10
aa(lp1985
g7
aV15
p1986
aa(lp1987
g2
aV22
p1988
aa(lp1989
g36
ag2
ag27
ag29
aa(lp1990
g7
ag3
aV13
p1991
ag3
aa(lp1992
g51
ag4
ag40
ag3
aa(lp1993
g2
ag3
ag110
aa(lp1994
g7
ag3
ag10
ag3
aa(lp1995
g20
ag23
aV16
p1996
aa(lp1997
g36
ag2
ag40
aa(lp1998
g20
ag71
ag10
ag12
aa(lp1999
g4
ag3
aV13
p2000
aa(lp2001
g2
ag12
aa(lp2002
g36
ag42
ag17
ag3
ag10
aa(lp2003
g16
ag17
ag8
ag4
aa(lp2004
g245
aV21
p2005
aa(lp2006
g36
aV19
p2007
aa(lp2008
g34
aV11
p2009
aa(lp2010
a(lp2011
g31
ag40
aa(lp2012
g51
ag4
ag40
ag3
aa(lp2013
g26
ag40
ag3
aa(lp2014
g36
ag17
aV14
p2015
aa(lp2016
g34
ag27
aa(lp2017
g29
ag40
ag29
aa(lp2018
g26
aV16
p2019
aa(lp2020
g36
ag8
ag4
aa(lp2021
g7
ag3
ag241
aa(lp2022
g36
ag42
ag3
aV13
p2023
ag3
aa(lp2024
g2
ag3
ag4
ag10
aa(lp2025
g82
ag3
ag241
aa(lp2026
g36
ag42
ag3
aV13
p2027
ag3
aa(lp2028
g34
ag27
aa(lp2029
g197
ag4
ag27
aa(lp2030
g20
ag71
ag3
ag4
ag10
ag3
aa(lp2031
g14
ag3
ag27
aa(lp2032
g7
ag17
ag8
ag4
ag29
aa(lp2033
g16
ag10
ag8
aa(lp2034
g16
ag17
ag10
ag8
aa(lp2035
g36
ag2
ag17
ag3
ag10
aa(lp2036
g31
ag17
ag3
aV16
p2037
aa(lp2038
g71
ag3
aV16
p2039
aa(lp2040
g7
aV15
p2041
aa(lp2042
g136
ag3
ag12
aa(lp2043
g14
ag10
ag12
aa(lp2044
g51
ag4
ag40
ag3
aa(lp2045
g36
ag8
ag4
aa(lp2046
g42
ag3
ag5
aa(lp2047
g7
aV19
p2048
aa(lp2049
g42
ag3
ag4
ag8
ag4
aa(lp2050
g14
ag8
aa(lp2051
g7
ag17
ag3
ag27
aa(lp2052
g36
ag42
ag17
ag10
ag4
aV10
p2053
ag3
aa(lp2054
g197
ag4
aV15
p2055
aa(lp2056
g7
ag10
ag8
aa(lp2057
g16
ag27
aa(lp2058
g136
ag3
ag8
ag29
aa(lp2059
g197
ag3
ag10
aa(lp2060
g82
aV10
p2061
ag29
aa(lp2062
g7
ag3
aV15
p2063
aa(lp2064
g245
aV22
p2065
aa(lp2066
g16
ag10
aV16
p2067
aa(lp2068
g7
ag8
ag4
aa(lp2069
g16
ag12
aa(lp2070
g26
ag3
aV13
p2071
aa(lp2072
g36
ag42
ag17
ag10
aV16
p2073
aa(lp2074
g197
ag3
aV19
p2075
ag4
aa(lp2076
g2
ag3
ag5
ag29
aa(lp2077
a(lp2078
g20
ag71
ag3
ag4
ag5
aa(lp2079
g36
ag2
ag3
ag4
ag12
ag29
aa(lp2080
g136
ag3
aV13
p2081
aa(lp2082
g16
ag12
aa(lp2083
g16
ag12
aa(lp2084
g82
ag3
aV13
p2085
aa(lp2086
a(lp2087
g2
ag3
aV14
p2088
aa(lp2089
g36
ag17
ag3
ag10
ag3
aa(lp2090
g36
ag17
ag3
ag5
ag3
aa(lp2091
g2
ag3
ag4
ag10
aa(lp2092
g14
ag3
ag10
aa(lp2093
g29
ag3
ag8
ag29
aa(lp2094
g36
ag4
aV15
p2095
aa(lp2096
g7
ag27
aa(lp2097
g197
ag3
ag5
ag29
aa(lp2098
g31
ag17
ag10
ag8
ag4
aa(lp2099
g82
ag3
aV18
p2100
aa(lp2101
g20
ag8
ag4
aa(lp2102
g16
ag12
aa(lp2103
g16
aV11
p2104
aa(lp2105
g197
ag3
ag4
aa(lp2106
g2
ag3
ag4
ag5
aa(lp2107
g26
ag3
ag110
aa(lp2108
g4
ag3
aV15
p2109
aa(lp2110
g36
ag42
ag3
ag241
aa(lp2111
g14
ag3
aV13
p2112
ag3
aa(lp2113
g36
ag17
ag4
aV21
p2114
aa(lp2115
g36
ag40
ag4
aa(lp2116
g20
ag71
ag3
ag4
ag27
aa(lp2117
g34
ag10
aV12
p2118
aa(lp2119
g16
ag17
ag3
ag10
ag4
aa(lp2120
g36
ag42
ag3
ag12
aa(lp2121
g197
ag3
ag4
ag5
ag29
aa(lp2122
g16
aV10
p2123
aa(lp2124
g82
ag3
ag10
ag3
aa(lp2125
g7
ag3
aV13
p2126
aa(lp2127
g36
ag17
ag3
ag10
ag3
aa(lp2128
g245
aV10
p2129
ag29
aa(lp2130
g7
ag4
ag8
aa(lp2131
g245
ag4
aV22
p2132
aa(lp2133
g2
ag3
ag5
aa(lp2134
g14
ag3
aV18
p2135
aa(lp2136
g29
ag3
ag10
ag29
aa(lp2137
g36
ag17
ag27
aa(lp2138
g245
ag8
ag4
aa(lp2139
g51
ag8
ag4
ag29
aa(lp2140
g82
ag3
ag12
aa(lp2141
g20
ag23
ag3
ag5
ag3
aa(lp2142
g197
ag3
ag5
ag3
aa(lp2143
g2
ag3
ag27
aa(lp2144
g16
ag17
ag3
ag4
ag12
ag29
aa(lp2145
g7
ag40
ag4
aa(lp2146
g197
ag4
aV15
p2147
aa(lp2148
g2
ag8
ag4
aa(lp2149
g34
ag4
ag40
ag3
aa(lp2150
g197
ag3
aV18
p2151
ag3
aa(lp2152
g20
ag71
ag3
ag10
aa(lp2153
g29
ag40
ag29
aa(lp2154
g7
ag27
aa(lp2155
g197
ag8
aa(lp2156
g16
ag3
ag10
ag29
aa(lp2157
g20
ag3
aV15
p2158
aa(lp2159
g197
ag3
aV18
p2160
ag3
aa(lp2161
g42
ag3
ag4
ag10
aa(lp2162
g20
ag23
ag3
ag4
ag5
aa(lp2163
g29
ag3
ag5
ag3
aa(lp2164
g4
aV11
p2165
aa(lp2166
g29
ag27
ag29
aa(lp2167
g36
ag3
aV15
p2168
aa(lp2169
g29
ag3
ag10
ag3
ag29
aa(lp2170
g36
ag40
ag4
aa(lp2171
g4
ag3
aV13
p2172
aa(lp2173
g16
ag10
ag40
ag3
aa(lp2174
g20
ag23
ag3
ag5
ag3
aa(lp2175
g36
ag17
ag3
ag4
ag5
aa(lp2176
g2
ag40
ag245
aa(lp2177
g31
aV15
p2178
aa(lp2179
g29
ag40
ag29
aa(lp2180
g136
ag3
ag12
ag29
aa(lp2181
g42
ag3
ag4
ag12
aa(lp2182
g26
ag12
aa(lp2183
g14
ag3
ag10
aa(lp2184
g16
ag17
ag4
aV11
p2185
aa(lp2186
g20
ag23
ag3
aV13
p2187
ag3
aa(lp2188
g20
ag71
ag3
ag12
aa(lp2189
g16
ag17
ag10
ag4
aV10
p2190
aa(lp2191
g245
ag4
aV21
p2192
aa(lp2193
g245
ag3
ag12
aa(lp2194
g31
ag3
ag110
aa(lp2195
g36
ag2
ag3
aV15
p2196
aa(lp2197
g36
ag42
ag3
ag10
ag29
aa(lp2198
g23
ag12
aa(lp2199
g16
ag17
ag4
ag12
aa(lp2200
g197
ag3
ag10
ag3
ag29
aa(lp2201
g36
ag2
ag17
ag3
ag4
ag27
aa(lp2202
g36
ag3
ag12
aa(lp2203
g36
ag3
ag12
ag29
aa(lp2204
g36
ag2
ag8
ag29
aa(lp2205
g16
ag3
aV13
p2206
ag3
aa(lp2207
g31
ag17
ag40
aa(lp2208
g31
ag17
ag3
ag10
ag3
aa(lp2209
g36
ag2
ag17
ag40
ag4
aa(lp2210
g7
ag40
ag4
aa(lp2211
g26
ag10
aV17
p2212
ag3
aa(lp2213
g7
ag3
aV23
p2214
aa(lp2215
g197
ag8
aa(lp2216
g7
ag10
aV14
p2217
aa(lp2218
g26
ag3
ag5
ag3
aa(lp2219
a(lp2220
g82
aV10
p2221
aa(lp2222
g36
ag12
aa(lp2223
g197
ag8
aa(lp2224
g7
ag17
ag3
ag5
ag3
aa(lp2225
g2
ag3
ag4
ag10
ag3
aa(lp2226
g82
ag3
ag10
ag3
aa(lp2227
g2
ag40
ag3
aa(lp2228
g20
ag71
ag3
aV15
p2229
aa(lp2230
g82
ag3
ag10
ag3
aa(lp2231
g36
ag42
ag3
ag8
aa(lp2232
g20
ag23
ag4
ag40
ag4
aa(lp2233
g7
ag3
aV13
p2234
aa(lp2235
g82
ag3
ag10
ag3
aa(lp2236
g2
ag8
ag4
aa(lp2237
g34
ag10
ag4
aV10
p2238
ag3
aa(lp2239
g31
ag381
aa(lp2240
g14
ag3
ag4
ag10
ag3
aa(lp2241
g2
ag3
ag8
aa(lp2242
g197
ag27
aa(lp2243
g16
ag17
ag3
aV23
p2244
aa(lp2245
g4
ag3
ag10
aa(lp2246
g36
ag42
ag17
ag3
ag5
aa(lp2247
g14
ag27
aa(lp2248
g16
ag10
ag12
aa(lp2249
g20
ag71
ag10
aV10
p2250
ag3
aa(lp2251
g82
ag3
aV18
p2252
aa(lp2253
g197
ag3
aV21
p2254
aa(lp2255
g2
ag3
ag12
aa(lp2256
g7
ag3
aV13
p2257
ag3
aa(lp2258
g7
aV21
p2259
aa(lp2260
g7
ag3
ag241
aa(lp2261
g4
ag40
ag29
aa(lp2262
g197
ag3
aV20
p2263
aa(lp2264
g42
ag3
aV18
p2265
aa(lp2266
g29
ag3
ag10
ag29
aa(lp2267
g7
ag17
ag3
ag4
ag10
aa(lp2268
g36
ag2
ag17
ag3
ag4
ag27
aa(lp2269
g245
ag3
ag27
aa(lp2270
g34
ag8
ag4
aa(lp2271
g16
ag17
ag4
aV10
p2272
aa(lp2273
g42
ag10
ag8
ag4
aa(lp2274
g16
ag17
ag10
aV12
p2275
aa(lp2276
g82
ag3
ag10
ag3
ag29
aa(lp2277
g7
ag17
aV11
p2278
aa(lp2279
g136
ag10
aV12
p2280
aa(lp2281
g36
ag17
ag3
ag241
aa(lp2282
g4
ag3
ag8
aa(lp2283
g42
ag10
aV10
p2284
aa(lp2285
g136
aV17
p2286
aa(lp2287
g29
ag3
ag12
ag29
aa(lp2288
g20
ag71
ag3
ag12
ag29
aa(lp2289
g51
ag4
aV10
p2290
ag29
aa(lp2291
g197
ag3
aV16
p2292
aa(lp2293
g14
ag3
aV18
p2294
ag3
aa(lp2295
g4
aV10
p2296
ag3
aa(lp2297
g136
ag3
ag12
aa(lp2298
g20
ag3
aV18
p2299
ag3
aa(lp2300
g82
ag3
ag10
ag3
aa(lp2301
g36
ag2
ag3
ag10
ag3
aa(lp2302
g16
ag3
ag5
aa(lp2303
g26
ag10
ag12
aa(lp2304
g14
ag3
ag10
aa(lp2305
g136
ag3
aV18
p2306
ag3
aa(lp2307
g16
ag3
ag5
aa(lp2308
g16
ag10
ag8
ag4
aa(lp2309
g136
aV10
p2310
aa(lp2311
g82
ag3
ag10
ag3
aa(lp2312
g36
ag42
ag3
ag10
aa(lp2313
g36
ag3
ag10
aa(lp2314
g16
ag4
ag40
ag3
aa(lp2315
g36
ag42
ag3
ag27
aa(lp2316
g16
ag12
aa(lp2317
g7
ag17
ag3
aV14
p2318
aa(lp2319
g36
ag17
ag3
ag4
ag27
aa(lp2320
g7
ag3
ag12
aa(lp2321
g245
ag8
ag4
aa(lp2322
g20
ag71
ag3
aV13
p2323
aa(lp2324
g7
ag3
ag27
aa(lp2325
g16
ag3
aV15
p2326
aa(lp2327
g36
ag2
ag3
ag5
ag3
aa(lp2328
g7
ag3
aV19
p2329
ag29
aa(lp2330
g82
ag27
ag29
aa(lp2331
g4
ag40
aa(lp2332
g16
ag4
ag40
ag3
aa(lp2333
g16
ag10
ag40
ag4
aa(lp2334
g42
ag3
ag4
ag12
aa(lp2335
g16
ag4
aV11
p2336
aa(lp2337
g31
ag17
ag3
ag12
aa(lp2338
g136
ag124
aa(lp2339
g36
ag17
ag3
ag5
ag3
aa(lp2340
g197
ag3
ag27
aa(lp2341
g20
aV12
p2342
aa(lp2343
g26
ag8
ag4
aa(lp2344
g82
ag3
ag8
ag4
ag29
aa(lp2345
g42
ag3
ag4
ag5
aa(lp2346
a(lp2347
g7
ag4
ag40
aa(lp2348
g7
ag17
ag27
aa(lp2349
g136
ag40
ag29
aa(lp2350
g26
aV10
p2351
aa(lp2352
g245
ag27
aa(lp2353
g197
ag3
ag12
aa(lp2354
g4
ag40
aa(lp2355
g20
ag3
ag5
aa(lp2356
g7
ag17
ag3
ag4
ag10
aa(lp2357
g2
ag3
aV13
p2358
ag3
aa(lp2359
g36
ag3
ag5
ag3
aa(lp2360
g16
ag3
ag5
aa(lp2361
g82
ag3
ag10
ag3
aa(lp2362
g31
ag8
aa(lp2363
g197
ag27
aa(lp2364
g36
ag2
ag17
ag3
ag110
ag3
aa(lp2365
g197
ag3
ag27
aa(lp2366
g7
ag17
ag3
ag4
aV13
p2367
ag3
aa(lp2368
g136
ag3
aV16
p2369
aa(lp2370
g23
ag3
ag5
ag29
aa(lp2371
g36
ag2
ag3
ag10
ag29
aa(lp2372
g36
ag42
ag3
ag241
ag29
aa(lp2373
g7
aV15
p2374
aa(lp2375
g7
ag17
ag3
ag10
ag3
aa(lp2376
g197
ag27
aa(lp2377
g42
ag10
ag4
ag40
aa(lp2378
g197
ag8
aa(lp2379
g26
ag3
aV13
p2380
aa(lp2381
g20
ag71
ag10
aV10
p2382
ag3
aa(lp2383
g29
ag12
ag29
aa(lp2384
g36
ag17
ag3
ag12
aa(lp2385
g7
ag17
ag3
ag10
aa(lp2386
g197
ag8
aa(lp2387
g197
ag3
ag4
ag10
aa(lp2388
g36
ag42
ag17
ag3
aV15
p2389
aa(lp2390
a(lp2391
g245
ag3
ag4
ag5
aa(lp2392
g36
ag17
ag27
aa(lp2393
g7
ag4
ag8
aa(lp2394
g20
ag23
ag3
ag10
ag3
aa(lp2395
g31
ag17
ag3
ag12
ag29
aa(lp2396
g136
ag3
ag12
aa(lp2397
g82
ag3
ag10
aa(lp2398
g197
ag4
aV14
p2399
aa(lp2400
g20
ag4
ag40
ag4
ag29
aa(lp2401
g20
ag71
ag10
aV10
p2402
ag3
aa(lp2403
g36
ag2
ag4
aV10
p2404
ag29
aa(lp2405
g82
ag3
ag10
ag3
aa(lp2406
g82
aV17
p2407
ag3
aa(lp2408
g16
ag3
ag27
aa(lp2409
g16
ag3
ag27
aa(lp2410
g2
aV22
p2411
aa(lp2412
g20
ag8
aa(lp2413
g82
ag3
ag12
ag29
aa(lp2414
g7
ag27
aa(lp2415
g20
aV11
p2416
aa(lp2417
g16
ag17
ag10
ag12
aa(lp2418
g14
ag10
aV17
p2419
ag3
aa(lp2420
g36
ag3
aV11
p2421
aa(lp2422
g82
ag3
aV20
p2423
aa(lp2424
g51
ag4
aV20
p2425
aa(lp2426
g136
ag3
aV16
p2427
aa(lp2428
g82
ag3
ag4
ag8
aa(lp2429
g36
ag2
ag17
ag3
ag4
ag12
aa(lp2430
g36
ag3
ag10
ag3
aa(lp2431
g71
ag10
ag40
ag29
aa(lp2432
g36
ag42
ag3
aV13
p2433
ag3
aa(lp2434
g36
ag2
ag17
ag3
ag12
aa(lp2435
g31
ag3
aV15
p2436
aa(lp2437
g36
aV20
p2438
aa(lp2439
g7
ag3
ag4
aV13
p2440
ag3
aa(lp2441
g42
ag3
ag241
aa(lp2442
g20
ag8
ag4
aa(lp2443
g16
ag17
ag10
ag12
aa(lp2444
g36
ag42
ag3
ag5
ag3
aa(lp2445
g14
ag3
ag12
aa(lp2446
g16
ag10
ag40
aa(lp2447
g7
ag17
ag3
ag8
aa(lp2448
g36
ag3
aV13
p2449
ag3
aa(lp2450
g16
ag3
aV23
p2451
aa(lp2452
g2
ag3
ag10
aa(lp2453
g36
ag42
ag3
aV19
p2454
ag4
aa(lp2455
g197
ag3
ag10
ag4
aa(lp2456
g16
ag17
aV11
p2457
aa(lp2458
g16
ag12
aa(lp2459
g16
ag12
aa(lp2460
g7
aV21
p2461
aa(lp2462
g136
aV10
p2463
aa(lp2464
g29
ag3
ag10
ag3
ag29
aa(lp2465
g23
ag3
ag4
aV13
p2466
aa(lp2467
g36
ag42
ag3
aV15
p2468
aa(lp2469
g197
ag3
aV19
p2470
ag29
aa(lp2471
g7
ag381
aa(lp2472
g16
ag3
aV18
p2473
ag29
aa(lp2474
g7
ag3
aV13
p2475
aa(lp2476
g197
ag3
ag10
ag3
ag29
aa(lp2477
g82
ag3
ag10
ag3
aa(lp2478
g197
ag3
ag5
aa(lp2479
a(lp2480
g36
ag2
ag17
ag3
ag5
ag3
aa(lp2481
g34
ag27
aa(lp2482
g36
ag3
ag12
aa(lp2483
g20
aV12
p2484
aa(lp2485
g20
ag3
aV15
p2486
aa(lp2487
g26
ag3
aV13
p2488
aa(lp2489
g245
ag3
ag10
ag3
aa(lp2490
g36
ag3
aV13
p2491
ag3
aa(lp2492
g31
ag8
aa(lp2493
g20
ag71
ag10
aV10
p2494
aa(lp2495
g2
ag3
ag10
ag3
aa(lp2496
g36
ag2
ag3
ag10
aa(lp2497
g14
aV16
p2498
aa(lp2499
g197
ag3
aV19
p2500
ag29
aa(lp2501
g7
ag4
ag27
aa(lp2502
g31
ag17
aV20
p2503
aa(lp2504
g197
ag3
ag5
ag29
aa(lp2505
a(lp2506
g26
ag3
ag10
aa(lp2507
g36
ag2
ag17
ag3
ag110
ag3
aa(lp2508
g4
ag40
aa(lp2509
g36
ag42
ag3
ag27
aa(lp2510
g23
aV22
p2511
aa(lp2512
g31
ag3
aV15
p2513
aa(lp2514
a(lp2515
g20
ag23
ag3
ag4
ag8
aa(lp2516
g16
ag3
ag10
ag3
aa(lp2517
g26
aV10
p2518
aa(lp2519
g14
ag3
ag27
aa(lp2520
g26
ag3
ag10
ag3
aa(lp2521
g36
ag42
ag3
ag110
aa(lp2522
g136
ag3
aV18
p2523
aa(lp2524
g7
ag17
ag3
aV18
p2525
aa(lp2526
g197
ag3
ag12
ag29
aa(lp2527
g7
ag3
ag10
aa(lp2528
g197
ag3
aV18
p2529
ag3
aa(lp2530
g31
ag17
ag12
aa(lp2531
g16
ag3
ag5
ag29
aa(lp2532
g36
ag3
ag27
aa(lp2533
g36
ag2
ag17
ag40
aa(lp2534
g7
ag8
ag4
aa(lp2535
g4
ag40
ag29
aa(lp2536
g136
ag3
ag10
aa(lp2537
g36
ag3
ag110
ag3
aa(lp2538
a(lp2539
g82
ag10
ag8
ag4
aa(lp2540
g14
ag3
ag27
aa(lp2541
g136
ag3
ag10
ag3
aa(lp2542
g14
ag27
ag29
aa(lp2543
g36
ag3
ag110
ag3
aa(lp2544
a(lp2545
g20
ag23
ag40
aa(lp2546
g20
ag71
ag3
ag10
ag12
ag29
aa(lp2547
g16
ag17
aV21
p2548
aa(lp2549
g197
ag27
aa(lp2550
g16
ag17
ag381
aa(lp2551
g16
ag17
ag4
aV16
p2552
aa(lp2553
g136
ag3
ag10
aa(lp2554
a(lp2555
g14
ag3
ag10
ag4
aa(lp2556
g2
ag40
aa(lp2557
g16
ag17
ag10
ag12
aa(lp2558
g34
ag4
ag12
aa(lp2559
g31
ag17
ag10
aV16
p2560
aa(lp2561
g26
ag3
ag27
aa(lp2562
g51
ag3
ag10
ag3
aa(lp2563
g20
ag71
ag3
ag4
ag12
aa(lp2564
g7
ag3
aV18
p2565
ag29
aa(lp2566
g36
ag40
ag4
aa(lp2567
g36
ag3
ag27
aa(lp2568
g20
ag3
ag5
aa(lp2569
g42
ag10
ag40
ag3
aa(lp2570
g36
ag2
ag3
ag4
ag5
aa(lp2571
g7
aV22
p2572
aa(lp2573
g20
ag23
ag3
ag5
ag3
aa(lp2574
g245
ag10
aV10
p2575
ag3
aa(lp2576
g16
ag17
ag12
aa(lp2577
g20
ag71
ag3
ag5
ag29
aa(lp2578
g7
ag17
ag3
ag110
aa(lp2579
g136
ag3
aV14
p2580
aa(lp2581
g20
ag23
ag3
ag110
aa(lp2582
g36
ag42
ag17
ag3
ag12
aa(lp2583
g82
ag3
aV16
p2584
aa(lp2585
g23
ag3
ag10
aa(lp2586
g136
ag3
ag10
ag3
aa(lp2587
g7
ag3
ag241
ag29
aa(lp2588
a(lp2589
g26
aV12
p2590
aa(lp2591
g7
aV17
p2592
aa(lp2593
g26
ag3
aV13
p2594
ag3
aa(lp2595
g2
ag12
aa(lp2596
g36
ag42
ag17
ag3
ag10
ag4
aa(lp2597
g16
ag17
ag10
aV10
p2598
aa(lp2599
g4
ag3
ag12
ag29
aa(lp2600
g20
ag71
ag3
ag4
ag8
aa(lp2601
g31
ag17
ag3
aV18
p2602
ag3
aa(lp2603
a(lp2604
g136
ag124
aa(lp2605
g16
ag3
ag10
ag29
aa(lp2606
g36
aV11
p2607
aa(lp2608
g31
ag17
ag10
ag8
aa(lp2609
g36
ag3
ag110
ag3
aa(lp2610
g7
ag17
ag10
aV12
p2611
aa(lp2612
g7
ag17
aV10
p2613
aa(lp2614
g20
ag23
ag3
ag5
ag3
aa(lp2615
g136
ag10
ag40
ag3
aa(lp2616
g16
ag4
aV10
p2617
aa(lp2618
g20
ag23
ag3
aV20
p2619
aa(lp2620
g20
ag71
ag3
ag10
ag4
aa(lp2621
g16
ag17
ag10
aV10
p2622
aa(lp2623
g26
ag10
ag12
aa(lp2624
g29
ag3
ag10
ag3
ag29
aa(lp2625
g26
ag3
aV18
p2626
aa(lp2627
g16
ag17
ag10
aV10
p2628
aa(lp2629
a(lp2630
g26
ag3
ag10
ag3
aa(lp2631
g136
aV10
p2632
aa(lp2633
g4
ag40
ag3
aa(lp2634
g136
ag3
aV18
p2635
aa(lp2636
g29
ag3
ag8
ag29
aa(lp2637
a(lp2638
g36
ag17
ag40
ag4
aa(lp2639
g20
ag4
ag40
ag3
aa(lp2640
a(lp2641
g14
ag3
ag12
aa(lp2642
g20
ag3
aV14
p2643
aa(lp2644
g42
ag10
ag12
aa(lp2645
g42
ag10
ag12
ag29
aa(lp2646
g4
ag3
ag5
aa(lp2647
g36
ag42
ag17
ag3
ag4
aV21
p2648
aa(lp2649
g82
ag8
aa(lp2650
g20
ag71
ag3
ag12
aa(lp2651
g16
ag4
aV10
p2652
aa(lp2653
g16
ag3
ag241
ag29
aa(lp2654
g136
ag40
aa(lp2655
g20
ag3
ag10
ag3
aa(lp2656
g82
ag3
aV16
p2657
aa(lp2658
g31
ag17
ag8
aa(lp2659
g51
ag4
aV10
p2660
aa(lp2661
g51
ag4
aV10
p2662
aa(lp2663
g36
ag42
ag3
ag4
ag10
aa(lp2664
g136
aV10
p2665
aa(lp2666
g7
ag17
ag3
ag10
aa(lp2667
g16
ag17
ag3
ag12
aa(lp2668
g36
ag42
ag10
ag8
ag29
aa(lp2669
g197
ag3
ag27
ag29
aa(lp2670
g2
ag3
ag10
ag3
aa(lp2671
g245
ag8
ag4
aa(lp2672
g82
ag3
ag4
ag5
aa(lp2673
g20
ag23
ag40
aa(lp2674
g51
ag4
aV10
p2675
ag29
aa(lp2676
g36
aV24
p2677
aa(lp2678
g20
ag71
ag3
aV16
p2679
aa(lp2680
g36
ag17
aV21
p2681
aa(lp2682
g82
ag3
aV16
p2683
aa(lp2684
g23
ag3
ag110
aa(lp2685
g42
ag10
ag12
ag29
aa(lp2686
g20
ag3
ag241
aa(lp2687
g36
ag17
ag3
ag12
aa(lp2688
g42
ag10
aV22
p2689
aa(lp2690
g4
aV11
p2691
aa(lp2692
g82
ag10
aV14
p2693
aa(lp2694
g2
ag12
aa(lp2695
g7
ag17
ag3
ag10
ag3
aa(lp2696
g2
ag3
ag4
ag10
aa(lp2697
g51
ag3
aV11
p2698
aa(lp2699
a(lp2700
a(lp2701
g7
ag8
ag4
aa(lp2702
g26
ag3
ag27
aa(lp2703
g2
aV10
p2704
aa(lp2705
g42
ag10
aV10
p2706
aa(lp2707
g29
ag3
ag10
ag3
ag29
aa(lp2708
g36
ag42
ag17
ag10
aV10
p2709
ag29
aa(lp2710
g14
ag3
aV13
p2711
aa(lp2712
g29
ag12
ag29
aa(lp2713
g36
ag2
ag40
ag29
aa(lp2714
g2
ag40
ag4
aa(lp2715
g4
ag40
aa(lp2716
g82
ag10
aV16
p2717
aa(lp2718
g136
ag27
ag29
aa(lp2719
g16
ag10
ag12
aa(lp2720
g20
ag124
aa(lp2721
g29
ag3
ag8
ag29
aa(lp2722
g197
ag8
aa(lp2723
g29
ag12
ag29
aa(lp2724
g136
ag3
ag10
aa(lp2725
g2
ag3
ag4
aV15
p2726
aa(lp2727
g2
ag3
aV21
p2728
aa(lp2729
a(lp2730
g29
ag3
ag10
ag29
aa(lp2731
g245
ag10
ag4
aV21
p2732
aa(lp2733
g16
ag17
ag4
ag12
ag29
aa(lp2734
g36
ag381
aa(lp2735
g31
ag17
ag3
ag10
ag3
aa(lp2736
g36
ag2
ag17
ag3
aV13
p2737
aa(lp2738
g136
aV17
p2739
ag29
aa(lp2740
g16
ag10
ag4
aV17
p2741
aa(lp2742
g7
ag17
ag3
aV13
p2743
aa(lp2744
g36
ag2
ag3
ag241
ag29
aa(lp2745
g31
ag10
ag381
ag3
aa(lp2746
g34
ag4
ag40
ag3
aa(lp2747
g20
ag23
ag3
ag10
ag4
aa(lp2748
g4
ag8
ag29
aa(lp2749
g136
ag3
ag10
aa(lp2750
g82
ag8
aa(lp2751
g2
ag3
ag10
aa(lp2752
g20
ag23
ag3
ag10
ag4
aa(lp2753
g4
ag12
ag29
aa(lp2754
g82
ag8
aa(lp2755
g82
ag8
aa(lp2756
g4
aV22
p2757
aa(lp2758
g20
ag3
aV13
p2759
ag3
aa(lp2760
g16
ag40
ag4
aa(lp2761
g51
ag12
aa(lp2762
g7
ag3
aV13
p2763
ag3
aa(lp2764
g7
ag3
ag4
aV13
p2765
aa(lp2766
g36
ag17
ag27
aa(lp2767
g7
ag3
ag5
aa(lp2768
a(lp2769
g31
aV12
p2770
ag3
aa(lp2771
g197
ag3
ag5
ag29
aa(lp2772
g82
ag3
ag4
ag10
aa(lp2773
g36
ag17
ag3
ag110
aa(lp2774
g197
ag3
aV16
p2775
ag29
aa(lp2776
g71
ag3
aV18
p2777
ag4
aa(lp2778
g23
ag3
ag110
aa(lp2779
g29
ag12
ag29
aa(lp2780
g7
ag3
ag10
aa(lp2781
g7
ag40
ag4
aa(lp2782
g71
ag3
ag10
aa(lp2783
g34
ag381
aa(lp2784
g7
ag40
ag4
aa(lp2785
g197
ag3
ag4
ag10
aa(lp2786
g31
aV22
p2787
aa(lp2788
g34
ag4
aV10
p2789
aa(lp2790
g29
ag40
ag29
aa(lp2791
g51
ag12
aa(lp2792
a(lp2793
g2
ag12
aa(lp2794
g26
ag27
ag29
aa(lp2795
g26
ag3
ag10
aa(lp2796
g34
ag27
aa(lp2797
g42
ag3
ag10
aa(lp2798
g36
ag42
ag3
ag8
ag4
aa(lp2799
g7
ag12
aa(lp2800
g36
ag2
ag40
ag29
aa(lp2801
g14
ag27
aa(lp2802
g14
aV20
p2803
aa(lp2804
g16
ag3
ag10
ag3
aa(lp2805
g16
ag8
ag4
aa(lp2806
g20
ag23
ag12
aa(lp2807
g36
ag42
ag10
ag8
ag29
aa(lp2808
g7
aV12
p2809
ag3
aa(lp2810
g42
ag10
ag8
aa(lp2811
g197
aV14
p2812
aa(lp2813
g20
ag23
ag3
ag5
ag3
aa(lp2814
g42
ag3
ag8
ag4
aa(lp2815
a(lp2816
g42
ag10
ag12
ag29
aa(lp2817
g14
ag3
ag27
ag29
aa(lp2818
g34
ag4
ag40
ag3
aa(lp2819
g82
ag40
ag4
aa(lp2820
a(lp2821
g2
ag3
ag4
ag5
aa(lp2822
g26
ag12
aa(lp2823
g7
ag17
ag3
ag5
aa(lp2824
g136
ag124
aa(lp2825
g26
ag3
ag10
ag3
aa(lp2826
g20
ag71
ag3
ag10
ag3
aa(lp2827
g36
ag17
aV19
p2828
aa(lp2829
g197
ag3
ag10
ag4
aa(lp2830
g7
ag17
ag40
ag3
ag29
aa(lp2831
g23
ag3
ag4
aV13
p2832
aa(lp2833
g197
ag3
aV18
p2834
ag3
aa(lp2835
g36
ag42
ag17
ag3
ag8
ag4
aa(lp2836
g31
ag17
ag8
ag4
aa(lp2837
g26
aV20
p2838
aa(lp2839
g51
ag4
ag40
aa(lp2840
g4
ag3
ag110
aa(lp2841
g16
ag17
ag4
aV15
p2842
aa(lp2843
g197
ag3
ag10
ag4
aa(lp2844
g82
ag3
ag4
ag5
aa(lp2845
g14
ag10
ag40
aa(lp2846
g34
ag12
aa(lp2847
a(lp2848
g29
ag3
ag27
ag29
aa(lp2849
g34
ag12
aa(lp2850
g20
ag71
ag3
ag27
aa(lp2851
g16
ag3
ag27
ag29
aa(lp2852
g20
ag124
aa(lp2853
g42
ag3
ag10
aa(lp2854
g36
ag42
ag17
ag10
ag40
ag3
aa(lp2855
g29
ag40
ag4
ag29
aa(lp2856
g31
ag8
aa(lp2857
g20
ag71
ag3
ag8
ag4
aa(lp2858
g20
ag23
ag3
ag4
ag110
aa(lp2859
g42
ag10
ag12
aa(lp2860
g4
ag12
ag29
aa(lp2861
g42
ag3
ag10
ag3
aa(lp2862
g20
ag71
ag3
ag4
aV21
p2863
aa(lp2864
g26
ag10
ag40
aa(lp2865
g136
aV17
p2866
aa(lp2867
g2
ag3
ag4
ag241
aa(lp2868
g26
ag8
aa(lp2869
g20
ag3
aV18
p2870
ag3
aa(lp2871
g36
ag2
ag17
ag40
ag4
aa(lp2872
g197
ag12
aa(lp2873
g14
ag3
ag27
aa(lp2874
g42
ag10
aV16
p2875
aa(lp2876
g36
ag17
ag12
aa(lp2877
g36
ag42
ag17
ag3
ag27
aa(lp2878
g36
ag17
ag3
ag27
aa(lp2879
g26
ag12
aa(lp2880
g36
ag2
ag17
ag4
ag27
aa(lp2881
g36
ag42
ag3
ag5
ag29
aa(lp2882
g31
aV10
p2883
aa(lp2884
g16
ag17
ag3
aV21
p2885
aa(lp2886
g20
ag23
ag3
ag8
aa(lp2887
g20
ag71
ag3
ag5
ag29
aa(lp2888
g14
ag3
ag10
ag3
aa(lp2889
g36
ag17
ag8
ag4
aa(lp2890
g42
ag10
ag8
ag4
aa(lp2891
g23
ag3
aV13
p2892
ag3
aa(lp2893
g7
ag17
ag3
ag5
aa(lp2894
g36
ag42
ag3
ag4
ag10
ag4
aa(lp2895
g29
ag3
ag10
ag3
ag29
aa(lp2896
g36
ag42
ag10
ag8
ag4
aa(lp2897
g82
ag10
aV16
p2898
aa(lp2899
g7
ag17
ag3
ag5
aa(lp2900
g20
ag23
ag3
aV14
p2901
aa(lp2902
g136
ag3
aV18
p2903
ag3
aa(lp2904
g16
ag17
ag3
ag241
aa(lp2905
g136
ag3
ag10
ag3
aa(lp2906
g51
ag8
aa(lp2907
g36
ag27
aa(lp2908
g36
ag42
ag3
ag10
aa(lp2909
g16
ag17
ag3
ag4
ag10
aa(lp2910
g20
ag23
ag3
ag110
aa(lp2911
g26
ag12
aa(lp2912
g136
ag3
aV18
p2913
ag3
aa(lp2914
g20
ag71
ag3
aV13
p2915
ag3
aa(lp2916
g14
ag3
aV18
p2917
ag3
aa(lp2918
g7
ag8
ag4
aa(lp2919
g7
ag3
ag5
ag29
aa(lp2920
g136
ag40
ag3
aa(lp2921
g20
ag71
ag3
ag4
ag8
aa(lp2922
g34
ag3
ag10
ag4
aa(lp2923
g36
ag2
ag17
ag3
ag5
aa(lp2924
g42
ag3
ag10
ag3
aa(lp2925
g136
aV10
p2926
aa(lp2927
g14
ag12
ag29
aa(lp2928
g4
ag3
ag27
aa(lp2929
g7
ag3
ag5
aa(lp2930
g14
ag3
ag5
aa(lp2931
g36
ag3
aV13
p2932
ag3
aa(lp2933
g34
ag10
aV10
p2934
aa(lp2935
g7
ag3
aV13
p2936
ag3
aa(lp2937
g16
ag3
ag10
ag3
aa(lp2938
g16
ag3
aV16
p2939
ag29
aa(lp2940
g4
ag381
aa(lp2941
g36
ag42
ag3
ag4
ag8
aa(lp2942
g29
ag3
ag10
ag3
ag29
aa(lp2943
g245
ag8
aa(lp2944
g7
ag3
ag10
aa(lp2945
g4
ag40
aa(lp2946
a(lp2947
g31
ag3
ag10
aa(lp2948
g7
ag3
aV15
p2949
aa(lp2950
g4
ag3
aV13
p2951
aa(lp2952
g82
ag3
ag10
ag3
aa(lp2953
g7
ag17
ag3
ag4
aV13
p2954
ag3
aa(lp2955
g7
ag17
ag3
ag5
aa(lp2956
g197
ag3
ag8
ag4
aa(lp2957
g34
ag3
ag5
ag29
aa(lp2958
g7
ag17
ag3
ag5
aa(lp2959
g20
aV12
p2960
aa(lp2961
g7
ag17
ag3
ag4
aV13
p2962
aa(lp2963
g82
ag3
ag10
ag3
aa(lp2964
g7
ag17
aV10
p2965
aa(lp2966
g36
ag42
ag3
ag4
ag10
ag4
aa(lp2967
g36
ag42
ag3
ag4
ag10
ag4
aa(lp2968
g2
ag3
ag10
ag3
aa(lp2969
g136
aV10
p2970
aa(lp2971
g7
ag3
ag10
aa(lp2972
g7
ag3
aV16
p2973
aa(lp2974
g36
ag27
aa(lp2975
g14
ag3
ag5
aa(lp2976
g82
ag10
aV16
p2977
aa(lp2978
g197
aV14
p2979
aa(lp2980
g136
aV10
p2981
aa(lp2982
g26
ag3
ag27
aa(lp2983
g4
ag3
aV13
p2984
ag3
aa(lp2985
g136
ag8
aa(lp2986
g136
ag3
aV20
p2987
aa(lp2988
g42
ag10
aV10
p2989
ag3
aa(lp2990
g36
ag3
aV14
p2991
aa(lp2992
g16
ag17
ag3
aV20
p2993
aa(lp2994
g136
ag10
ag40
ag3
aa(lp2995
g20
ag71
ag3
ag4
ag8
ag4
aa(lp2996
g197
ag3
ag8
ag4
aa(lp2997
g20
ag71
ag3
ag4
ag8
ag4
aa(lp2998
g20
ag71
ag3
ag8
ag4
aa(lp2999
g16
ag3
ag8
aa(lp3000
g7
ag17
ag3
ag10
aa(lp3001
g136
ag3
ag10
ag3
aa(lp3002
g16
ag27
aa(lp3003
g4
ag3
aV13
p3004
aa(lp3005
g16
ag17
ag3
ag10
aa(lp3006
g136
ag3
ag12
aa(lp3007
g23
ag3
ag27
ag29
aa(lp3008
g197
ag3
ag8
ag4
aa(lp3009
g7
aV15
p3010
aa(lp3011
g20
ag71
ag3
ag5
ag29
aa(lp3012
g36
ag42
ag10
ag40
ag3
aa(lp3013
g26
aV10
p3014
aa(lp3015
g36
ag27
aa(lp3016
g16
ag3
aV15
p3017
aa(lp3018
g2
ag4
ag12
aa(lp3019
g26
aV10
p3020
aa(lp3021
g36
ag2
ag17
ag3
ag12
aa(lp3022
g20
ag71
ag3
ag5
aa(lp3023
g34
ag27
ag29
aa(lp3024
g20
ag27
aa(lp3025
g34
ag40
ag4
aa(lp3026
g136
ag3
ag10
ag3
ag29
aa(lp3027
g16
ag8
ag29
aa(lp3028
g82
ag3
aV20
p3029
aa(lp3030
g20
ag71
ag3
ag27
aa(lp3031
g7
ag8
ag4
aa(lp3032
g136
ag3
ag10
ag3
ag29
aa(lp3033
g36
ag42
ag10
ag8
aa(lp3034
g31
ag10
ag12
aa(lp3035
g36
ag17
ag40
ag4
aa(lp3036
g14
ag3
aV18
p3037
aa(lp3038
g14
ag3
aV15
p3039
aa(lp3040
g34
ag10
ag40
ag3
aa(lp3041
g197
ag3
ag4
ag5
ag29
aa(lp3042
a(lp3043
g7
ag3
ag10
ag4
aa(lp3044
g42
ag3
aV21
p3045
aa(lp3046
g7
ag3
ag5
aa(lp3047
g42
ag3
ag12
ag29
aa(lp3048
g2
ag3
ag4
ag5
aa(lp3049
g197
ag4
ag10
aV14
p3050
aa(lp3051
g31
aV10
p3052
aa(lp3053
g16
ag10
ag4
ag12
aa(lp3054
g245
ag40
ag4
aa(lp3055
g7
aV17
p3056
ag3
aa(lp3057
g26
ag3
ag27
aa(lp3058
g20
ag71
ag10
aV10
p3059
ag3
aa(lp3060
g31
ag40
ag3
aa(lp3061
g31
ag3
ag10
ag4
aa(lp3062
g197
ag3
ag27
aa(lp3063
g42
ag3
ag27
aa(lp3064
g20
ag3
ag10
ag3
aa(lp3065
g16
ag4
aV10
p3066
aa(lp3067
g71
ag3
ag27
aa(lp3068
g14
ag3
ag10
ag3
aa(lp3069
g34
ag12
ag29
aa(lp3070
g36
ag42
ag3
ag241
ag29
aa(lp3071
g34
ag12
aa(lp3072
g4
aV10
p3073
aa(lp3074
g29
ag3
ag27
ag29
aa(lp3075
g136
ag3
ag110
aa(lp3076
g36
ag17
ag8
aa(lp3077
g26
ag3
ag27
aa(lp3078
g7
ag17
aV19
p3079
aa(lp3080
g20
ag71
ag3
ag4
ag8
ag4
aa(lp3081
g31
ag3
ag10
ag3
aa(lp3082
g36
ag42
ag3
ag4
ag8
ag4
aa(lp3083
g136
ag40
aa(lp3084
g2
ag3
ag4
ag10
aa(lp3085
g26
ag3
ag27
aa(lp3086
g42
ag3
ag8
ag4
aa(lp3087
g36
ag42
ag17
ag3
ag8
aa(lp3088
g34
ag10
ag40
aa(lp3089
g34
ag3
ag5
ag29
aa(lp3090
g51
ag4
ag40
aa(lp3091
g4
ag8
ag4
aa(lp3092
g36
ag42
ag10
ag40
ag29
aa(lp3093
g7
ag3
ag8
aa(lp3094
g26
aV21
p3095
aa(lp3096
g136
ag3
ag10
aa(lp3097
g16
ag10
ag4
aV21
p3098
aa(lp3099
g20
ag23
ag3
aV15
p3100
aa(lp3101
g20
ag23
ag3
aV15
p3102
aa(lp3103
g16
ag12
aa(lp3104
g23
ag3
ag110
aa(lp3105
g26
ag3
aV16
p3106
aa(lp3107
g7
ag3
ag4
ag27
aa(lp3108
g36
ag2
ag17
ag3
aV11
p3109
aa(lp3110
g16
ag17
ag3
ag10
ag4
aa(lp3111
g31
ag3
ag10
ag3
aa(lp3112
g2
aV21
p3113
aa(lp3114
g20
ag71
ag3
ag10
ag4
aa(lp3115
g14
ag3
aV13
p3116
aa(lp3117
g29
ag3
ag10
ag3
ag29
aa(lp3118
g16
ag17
ag12
aa(lp3119
g136
ag3
aV18
p3120
aa(lp3121
g82
ag27
aa(lp3122
g26
ag27
aa(lp3123
g136
ag3
ag10
ag3
aa(lp3124
g2
ag40
ag4
aa(lp3125
g31
ag17
ag12
aa(lp3126
g26
ag27
aa(lp3127
g36
ag2
ag17
ag3
ag5
aa(lp3128
g7
aV10
p3129
ag27
aa(lp3130
g16
ag3
ag10
ag4
ag29
aa(lp3131
g136
ag3
ag10
ag3
aa(lp3132
g26
ag27
aa(lp3133
g197
ag3
aV13
p3134
ag3
aa(lp3135
g7
ag3
aV13
p3136
ag3
aa(lp3137
g31
aV15
p3138
aa(lp3139
g197
ag3
ag12
aa(lp3140
g136
ag3
aV13
p3141
ag3
aa(lp3142
g16
ag3
ag5
aa(lp3143
g20
ag3
ag10
aa(lp3144
g197
ag3
ag27
aa(lp3145
g136
ag40
ag3
aa(lp3146
g26
ag3
aV13
p3147
ag3
aa(lp3148
g2
aV10
p3149
aa(lp3150
g26
ag8
ag4
ag29
aa(lp3151
g136
ag3
ag10
ag3
ag29
aa(lp3152
g42
ag3
ag27
aa(lp3153
g7
ag3
ag241
aa(lp3154
g36
ag2
ag17
ag3
ag5
ag3
aa(lp3155
a(lp3156
g4
ag8
ag4
aa(lp3157
a(lp3158
g136
aV10
p3159
aa(lp3160
g2
ag3
ag4
ag5
ag3
aa(lp3161
g7
ag3
aV18
p3162
ag3
aa(lp3163
g20
ag23
ag3
ag5
aa(lp3164
g20
ag3
ag10
aa(lp3165
g20
ag23
aV20
p3166
aa(lp3167
g20
ag71
ag3
ag4
ag10
aa(lp3168
g7
ag3
aV18
p3169
ag3
aa(lp3170
g82
ag40
ag3
ag29
aa(lp3171
g7
ag3
ag10
ag29
aa(lp3172
g82
ag40
ag3
aa(lp3173
g7
ag3
ag4
ag110
aa(lp3174
g20
ag3
ag10
aa(lp3175
g20
ag3
ag10
aa(lp3176
g82
ag3
ag4
ag5
aa(lp3177
g20
aV16
p3178
aa(lp3179
g20
ag23
aV17
p3180
ag3
aa(lp3181
g36
ag42
ag17
ag10
aV10
p3182
aa(lp3183
g36
ag3
ag8
aa(lp3184
g82
ag3
ag10
aa(lp3185
g136
ag40
aa(lp3186
g20
ag23
ag3
ag8
aa(lp3187
g36
ag42
ag3
ag110
aa(lp3188
g16
ag3
aV13
p3189
ag3
aa(lp3190
g16
ag40
ag3
ag29
aa(lp3191
g42
ag10
ag4
ag40
aa(lp3192
g42
ag3
ag4
ag8
aa(lp3193
g7
ag8
ag4
aa(lp3194
g245
ag4
aV22
p3195
aa(lp3196
g36
ag42
ag17
ag3
ag4
ag10
ag4
aa(lp3197
g7
ag17
ag8
ag4
ag29
aa(lp3198
g7
aV14
p3199
aa(lp3200
g36
ag2
ag3
ag10
aa(lp3201
g36
ag2
ag3
ag241
ag29
aa(lp3202
g4
ag40
aa(lp3203
g36
ag2
ag3
ag27
aa(lp3204
g16
ag3
aV13
p3205
ag3
aa(lp3206
g31
ag3
ag8
aa(lp3207
g16
ag17
ag10
ag12
ag29
aa(lp3208
g26
ag3
ag8
aa(lp3209
g16
ag17
ag4
ag12
aa(lp3210
g14
ag3
ag10
ag3
aa(lp3211
g36
ag3
aV11
p3212
aa(lp3213
g26
ag3
ag10
ag3
aa(lp3214
g16
ag10
ag40
ag29
aa(lp3215
g136
ag3
aV16
p3216
aa(lp3217
g16
ag17
ag3
ag10
ag3
aa(lp3218
g7
ag3
ag110
aa(lp3219
g31
ag17
ag40
aa(lp3220
g82
ag3
ag241
aa(lp3221
g42
ag3
ag110
aa(lp3222
g82
aV19
p3223
aa(lp3224
g42
ag3
aV18
p3225
aa(lp3226
g51
ag3
ag10
ag29
aa(lp3227
g16
ag3
ag4
aV23
p3228
aa(lp3229
g31
aV11
p3230
aa(lp3231
g7
ag3
ag8
aa(lp3232
g82
ag3
aV18
p3233
ag3
aa(lp3234
g26
ag40
aa(lp3235
g42
ag3
ag10
aa(lp3236
g26
aV14
p3237
aa(lp3238
g7
ag3
aV13
p3239
aa(lp3240
g2
ag3
ag4
ag5
aa(lp3241
g31
ag17
ag3
ag5
aa(lp3242
g14
ag3
ag10
aa(lp3243
g2
ag40
aa(lp3244
g29
ag40
ag29
aa(lp3245
g29
ag3
ag10
ag29
aa(lp3246
g42
ag3
ag8
ag4
aa(lp3247
g2
aV10
p3248
aa(lp3249
g7
ag3
ag110
aa(lp3250
g26
ag8
ag4
ag29
aa(lp3251
g20
ag3
ag10
ag3
aa(lp3252
g36
ag2
ag4
aV10
p3253
ag29
aa(lp3254
g29
ag3
ag5
ag3
aa(lp3255
g7
ag17
ag3
ag4
ag5
aa(lp3256
g4
ag3
aV11
p3257
aa(lp3258
g71
ag3
ag10
ag4
aa(lp3259
g36
ag2
aV21
p3260
aa(lp3261
g29
ag3
ag27
ag29
aa(lp3262
g26
ag3
ag12
aa(lp3263
g14
ag3
ag4
ag5
aa(lp3264
g26
ag3
ag10
ag3
aa(lp3265
g29
ag12
ag29
aa(lp3266
g31
ag17
ag10
ag12
aa(lp3267
g245
ag10
ag4
ag12
aa(lp3268
g36
ag17
aV14
p3269
aa(lp3270
g16
ag17
ag3
ag10
ag3
aa(lp3271
g82
ag3
aV19
p3272
ag29
aa(lp3273
g26
ag10
aV17
p3274
ag3
aa(lp3275
g136
aV10
p3276
aa(lp3277
g245
ag3
ag8
ag4
aa(lp3278
g31
ag17
aV10
p3279
ag3
aa(lp3280
g82
ag10
aV19
p3281
ag4
aa(lp3282
g31
ag10
ag381
ag3
aa(lp3283
g36
ag42
ag17
ag10
aV21
p3284
aa(lp3285
g34
ag4
aV12
p3286
ag3
aa(lp3287
g7
ag3
aV20
p3288
aa(lp3289
g31
ag17
ag40
ag3
aa(lp3290
g20
ag23
ag3
ag10
ag4
aa(lp3291
g82
ag12
aa(lp3292
g20
ag23
ag12
aa(lp3293
g7
ag3
aV18
p3294
ag3
aa(lp3295
g20
ag71
ag825
aa(lp3296
g20
ag27
aa(lp3297
g36
ag2
ag8
ag4
ag29
aa(lp3298
g7
ag12
aa(lp3299
g20
ag23
aV20
p3300
aa(lp3301
g29
ag3
ag10
ag29
aa(lp3302
g42
ag10
ag4
aV10
p3303
aa(lp3304
g42
ag10
ag4
aV10
p3305
aa(lp3306
g42
ag3
ag27
aa(lp3307
g16
aV15
p3308
aa(lp3309
g245
ag27
aa(lp3310
g7
ag8
ag4
aa(lp3311
g20
ag71
ag10
aV16
p3312
aa(lp3313
g36
ag42
ag10
ag12
aa(lp3314
g29
ag3
ag10
ag29
aa(lp3315
g16
ag3
aV11
p3316
aa(lp3317
g36
ag17
ag40
ag4
aa(lp3318
g29
ag3
ag5
ag29
aa(lp3319
g36
ag42
ag10
aV16
p3320
aa(lp3321
g197
ag3
ag27
aa(lp3322
g197
ag3
ag27
aa(lp3323
g7
ag8
ag4
aa(lp3324
g34
ag10
ag40
aa(lp3325
g34
ag27
aa(lp3326
g82
ag3
aV18
p3327
ag3
aa(lp3328
g82
ag3
aV16
p3329
aa(lp3330
g20
ag23
ag3
ag5
ag29
aa(lp3331
g245
ag3
ag12
aa(lp3332
g7
ag3
ag5
aa(lp3333
g7
ag17
ag3
ag12
aa(lp3334
g20
ag23
ag3
aV13
p3335
aa(lp3336
g7
ag3
ag5
aa(lp3337
g7
ag3
ag5
aa(lp3338
g82
aV17
p3339
ag3
aa(lp3340
g36
ag3
ag110
ag3
aa(lp3341
g31
ag3
aV15
p3342
aa(lp3343
g2
ag3
ag10
aa(lp3344
g31
ag3
ag12
aa(lp3345
g20
ag3
ag10
ag3
aa(lp3346
g20
ag3
ag5
ag29
aa(lp3347
g16
ag17
ag10
aV10
p3348
aa(lp3349
g16
aV10
p3350
aa(lp3351
g4
ag3
ag10
ag3
aa(lp3352
g29
ag3
ag10
ag29
aa(lp3353
g197
ag8
aa(lp3354
g16
ag3
aV11
p3355
aa(lp3356
g29
ag3
ag10
ag29
aa(lp3357
g20
ag23
ag3
ag4
ag8
aa(lp3358
g29
ag3
ag27
ag29
aa(lp3359
g29
ag3
ag27
ag29
aa(lp3360
g42
ag3
ag5
ag3
aa(lp3361
a(lp3362
g82
ag3
aV11
p3363
aa(lp3364
g36
ag42
ag10
ag40
ag29
aa(lp3365
g7
ag17
ag10
aV19
p3366
ag4
aa(lp3367
g20
ag23
ag12
aa(lp3368
g197
ag3
ag10
ag3
aa(lp3369
g7
ag3
ag12
aa(lp3370
g36
ag42
ag17
ag10
aV10
p3371
aa(lp3372
a(lp3373
g16
ag10
ag4
ag40
ag3
aa(lp3374
g31
aV10
p3375
ag29
aa(lp3376
g20
ag23
ag3
ag5
ag3
aa(lp3377
g14
ag3
aV13
p3378
ag3
aa(lp3379
g197
ag3
aV13
p3380
ag3
aa(lp3381
g36
ag17
ag8
ag4
aa(lp3382
g197
ag3
ag5
ag3
aa(lp3383
g16
ag17
ag3
ag27
aa(lp3384
g4
ag3
ag10
ag3
aa(lp3385
g136
ag40
ag3
aa(lp3386
g16
ag3
aV15
p3387
aa(lp3388
g36
ag4
ag381
aa(lp3389
g20
aV12
p3390
aa(lp3391
g245
ag3
ag8
ag4
aa(lp3392
g29
aV10
p3393
ag29
aa(lp3394
g36
ag42
ag3
ag110
aa(lp3395
g7
aV21
p3396
aa(lp3397
g16
ag3
aV18
p3398
aa(lp3399
a(lp3400
g136
ag40
aa(lp3401
g36
ag17
ag3
ag10
aa(lp3402
g16
ag10
ag4
aV17
p3403
aa(lp3404
g20
ag23
ag27
aa(lp3405
g20
ag8
ag4
aa(lp3406
g4
aV12
p3407
aa(lp3408
g23
ag3
ag241
ag29
aa(lp3409
g51
ag3
aV11
p3410
aa(lp3411
g245
ag8
ag4
aa(lp3412
g82
ag10
aV16
p3413
aa(lp3414
g82
ag3
aV13
p3415
aa(lp3416
g20
ag23
ag8
ag4
aa(lp3417
g2
aV16
p3418
ag29
aa(lp3419
g136
ag40
aa(lp3420
g82
ag40
ag3
ag29
aa(lp3421
g2
ag27
aa(lp3422
g2
ag27
aa(lp3423
g4
ag3
ag5
aa(lp3424
a(lp3425
g7
ag12
aa(lp3426
g29
ag3
ag12
ag29
aa(lp3427
g16
ag3
ag4
ag241
ag29
aa(lp3428
g7
ag17
aV12
p3429
aa(lp3430
g31
ag3
aV15
p3431
aa(lp3432
a(lp3433
g16
ag27
aa(lp3434
g16
ag27
aa(lp3435
g136
ag3
ag12
ag29
aa(lp3436
g16
ag10
ag40
ag29
aa(lp3437
g16
ag3
ag4
ag110
ag3
aa(lp3438
g42
ag3
ag4
ag10
ag4
aa(lp3439
g7
ag3
ag12
aa(lp3440
g16
ag17
ag27
aa(lp3441
g16
ag4
ag381
aa(lp3442
g16
ag3
ag4
ag110
aa(lp3443
a(lp3444
g16
ag3
ag241
ag29
aa(lp3445
a(lp3446
g82
ag3
aV19
p3447
ag29
aa(lp3448
g31
ag17
ag3
ag27
aa(lp3449
g51
ag40
ag4
ag29
aa(lp3450
g7
ag3
ag12
aa(lp3451
g16
ag17
ag3
ag27
aa(lp3452
g51
ag3
ag8
ag4
aa(lp3453
g2
aV22
p3454
aa(lp3455
g29
ag3
ag10
ag29
aa(lp3456
g7
ag17
ag3
ag10
aa(lp3457
g82
ag3
ag4
ag10
aa(lp3458
g2
ag3
aV18
p3459
ag3
aa(lp3460
a(lp3461
g42
ag10
aV10
p3462
ag3
aa(lp3463
g14
ag27
aa(lp3464
g4
ag3
ag10
aa(lp3465
g16
ag17
ag10
aV10
p3466
aa(lp3467
g7
ag3
ag110
aa(lp3468
g14
aV19
p3469
ag29
aa(lp3470
g2
ag27
aa(lp3471
g36
ag3
ag110
aa(lp3472
g82
ag3
aV18
p3473
aa(lp3474
g20
ag23
ag27
aa(lp3475
g7
ag12
aa(lp3476
g20
ag71
ag3
ag4
ag8
ag4
aa(lp3477
g245
ag3
ag8
ag4
aa(lp3478
g82
aV17
p3479
ag4
aa(lp3480
g20
aV20
p3481
aa(lp3482
g136
ag3
aV18
p3483
ag3
aa(lp3484
g136
ag3
aV18
p3485
ag3
aa(lp3486
g31
ag17
ag8
aa(lp3487
g136
ag40
aa(lp3488
g31
ag3
ag5
aa(lp3489
g31
ag3
ag5
ag3
aa(lp3490
g71
ag3
ag10
ag4
aa(lp3491
g20
ag12
aa(lp3492
g20
ag12
aa(lp3493
g16
ag17
ag3
ag241
aa(lp3494
g136
ag3
ag12
aa(lp3495
g36
ag42
ag3
ag8
ag4
aa(lp3496
g16
ag12
aa(lp3497
g31
ag17
aV21
p3498
aa(lp3499
g20
ag71
ag825
aa(lp3500
g31
ag3
ag110
ag3
aa(lp3501
g26
ag27
aa(lp3502
g20
ag23
ag3
aV13
p3503
aa(lp3504
g136
ag40
ag3
aa(lp3505
g26
aV14
p3506
aa(lp3507
g7
ag381
aa(lp3508
a(lp3509
g20
ag23
ag3
ag4
ag5
ag29
aa(lp3510
g2
aV16
p3511
ag29
aa(lp3512
g34
ag3
ag5
ag29
aa(lp3513
g16
ag3
ag4
ag110
aa(lp3514
g20
ag23
ag40
aa(lp3515
g136
ag40
aa(lp3516
g26
ag3
ag10
aa(lp3517
g31
ag17
ag27
aa(lp3518
g16
aV15
p3519
aa(lp3520
g20
ag23
ag40
aa(lp3521
g2
ag8
aa(lp3522
g26
aV10
p3523
aa(lp3524
g16
ag17
ag3
aV16
p3525
aa(lp3526
g16
ag10
ag8
ag4
aa(lp3527
g4
ag3
ag10
ag3
ag29
aa(lp3528
g2
ag8
aa(lp3529
g31
aV10
p3530
aa(lp3531
g4
ag3
aV11
p3532
aa(lp3533
g31
ag27
aa(lp3534
g82
ag3
ag5
aa(lp3535
g7
ag17
ag3
aV20
p3536
aa(lp3537
g34
ag27
ag29
aa(lp3538
g7
ag3
ag27
aa(lp3539
g136
ag3
ag8
aa(lp3540
g42
ag3
aV15
p3541
aa(lp3542
g36
ag42
ag10
aV10
p3543
aa(lp3544
g23
ag27
aa(lp3545
g42
ag3
ag12
aa(lp3546
g7
ag3
ag8
ag4
aa(lp3547
g7
ag3
ag5
aa(lp3548
g16
aV19
p3549
aa(lp3550
g7
aV10
p3551
aa(lp3552
g16
ag17
ag12
ag29
aa(lp3553
g29
ag3
ag10
ag29
aa(lp3554
g4
ag3
ag10
ag3
aa(lp3555
g2
ag12
aa(lp3556
g20
ag23
ag3
ag10
aa(lp3557
g36
ag42
ag3
ag5
aa(lp3558
g36
ag2
ag3
aV18
p3559
ag29
aa(lp3560
g82
ag4
aV10
p3561
aa(lp3562
g7
aV11
p3563
aa(lp3564
g136
ag40
ag3
aa(lp3565
g7
ag3
ag4
ag5
ag3
aa(lp3566
g31
ag17
aV10
p3567
aa(lp3568
g7
ag17
ag3
aV13
p3569
ag3
aa(lp3570
g26
ag3
aV18
p3571
ag29
aa(lp3572
g7
ag17
ag3
aV18
p3573
aa(lp3574
g197
ag27
aa(lp3575
g29
ag3
ag12
ag29
aa(lp3576
g7
ag3
ag4
aV15
p3577
aa(lp3578
g20
aV17
p3579
ag29
aa(lp3580
g20
ag71
ag3
aV13
p3581
aa(lp3582
g4
ag3
ag10
aa(lp3583
g4
ag3
ag8
ag29
aa(lp3584
g29
ag27
ag29
aa(lp3585
g20
ag71
ag3
ag10
ag3
aa(lp3586
g29
ag3
ag10
ag3
ag29
aa(lp3587
g7
ag17
ag10
aV19
p3588
ag4
aa(lp3589
g16
ag17
ag10
ag4
ag12
aa(lp3590
g31
ag17
aV10
p3591
aa(lp3592
g29
ag3
ag5
ag3
aa(lp3593
g36
ag2
ag17
ag3
ag4
ag5
ag3
aa(lp3594
g197
ag3
ag10
ag3
aa(lp3595
g136
ag40
aa(lp3596
g36
ag42
ag17
ag3
ag27
aa(lp3597
g197
ag4
ag10
aV14
p3598
aa(lp3599
g82
ag10
aV16
p3600
aa(lp3601
g136
ag27
ag29
aa(lp3602
a(lp3603
a(lp3604
g16
ag17
ag4
ag12
aa(lp3605
g2
aV19
p3606
aa(lp3607
g7
ag3
ag8
ag4
aa(lp3608
g245
ag4
ag40
aa(lp3609
g2
ag3
ag10
ag3
aa(lp3610
g82
ag3
ag8
ag4
ag29
aa(lp3611
g26
ag10
aV16
p3612
aa(lp3613
g7
ag3
ag241
aa(lp3614
g20
ag3
ag110
ag3
aa(lp3615
g36
ag42
ag17
ag3
ag4
ag5
ag29
aa(lp3616
g4
ag124
aa(lp3617
g29
ag40
ag4
ag29
aa(lp3618
g36
aV12
p3619
aa(lp3620
g29
ag40
ag3
ag29
aa(lp3621
g20
aV15
p3622
aa(lp3623
g23
ag40
ag29
aa(lp3624
g36
ag3
ag110
aa(lp3625
g20
aV17
p3626
ag3
aa(lp3627
g36
ag42
ag17
ag3
ag12
aa(lp3628
g36
ag42
ag3
ag10
aa(lp3629
g34
ag27
aa(lp3630
g34
ag27
aa(lp3631
g7
ag3
aV13
p3632
aa(lp3633
g7
ag17
aV17
p3634
ag4
aa(lp3635
g36
ag42
ag17
ag3
ag8
aa(lp3636
g7
ag4
aV10
p3637
ag29
aa(lp3638
g26
ag40
ag29
aa(lp3639
g29
ag8
ag29
aa(lp3640
g16
ag17
ag4
ag12
aa(lp3641
g36
ag42
ag3
ag8
aa(lp3642
a(lp3643
g7
ag40
ag4
aa(lp3644
g2
ag3
ag12
aa(lp3645
g34
ag27
aa(lp3646
g136
ag27
ag29
aa(lp3647
g82
ag3
ag4
ag10
ag3
aa(lp3648
g16
ag3
ag10
ag4
ag29
aa(lp3649
g34
ag12
aa(lp3650
g16
ag3
ag10
ag4
ag29
aa(lp3651
g31
ag17
ag3
ag8
aa(lp3652
g7
ag8
aa(lp3653
g31
ag17
ag10
ag40
aa(lp3654
g20
ag23
ag3
aV13
p3655
aa(lp3656
g16
ag40
ag4
aa(lp3657
g29
ag40
ag29
aa(lp3658
g20
ag40
ag4
aa(lp3659
g14
ag3
aV20
p3660
aa(lp3661
g51
ag40
ag4
ag29
aa(lp3662
g29
ag3
ag5
ag29
aa(lp3663
g14
ag3
ag5
aa(lp3664
g16
ag10
ag8
ag4
aa(lp3665
g82
ag3
ag10
ag3
aa(lp3666
g16
ag17
ag3
ag10
aa(lp3667
g7
ag17
ag3
ag4
aV13
p3668
ag3
aa(lp3669
g20
ag71
ag3
ag4
ag8
aa(lp3670
g36
aV17
p3671
ag4
aa(lp3672
g82
ag3
ag27
aa(lp3673
g36
aV15
p3674
aa(lp3675
g20
aV17
p3676
ag3
aa(lp3677
g4
ag3
ag8
ag29
aa(lp3678
g20
ag3
ag5
aa(lp3679
g16
ag17
ag3
ag27
aa(lp3680
g16
ag3
ag10
ag4
aa(lp3681
g16
ag17
ag4
ag12
aa(lp3682
g29
ag3
ag12
ag29
aa(lp3683
g29
ag27
ag29
aa(lp3684
g29
ag3
ag10
ag3
ag29
aa(lp3685
g7
ag17
ag8
aa(lp3686
g197
ag3
ag10
ag29
aa(lp3687
g20
ag4
ag381
aa(lp3688
g245
ag3
ag4
aV21
p3689
aa(lp3690
g7
ag17
aV20
p3691
aa(lp3692
g16
ag17
ag3
aV18
p3693
ag3
aa(lp3694
g36
ag42
ag3
ag241
ag29
aa(lp3695
g26
ag3
aV20
p3696
aa(lp3697
g26
ag3
aV20
p3698
aa(lp3699
g23
ag27
ag29
aa(lp3700
a(lp3701
g23
ag27
ag29
aa(lp3702
g7
aV16
p3703
aa(lp3704
g16
ag17
ag10
ag40
ag3
aa(lp3705
g7
ag3
ag5
aa(lp3706
g29
ag3
ag27
ag29
aa(lp3707
g34
ag27
aa(lp3708
g7
ag17
ag3
aV13
p3709
aa(lp3710
g16
ag17
ag27
aa(lp3711
g7
ag3
ag8
aa(lp3712
g36
ag40
ag4
aa(lp3713
g16
ag17
ag381
aa(lp3714
g16
aV11
p3715
aa(lp3716
g4
ag3
aV15
p3717
aa(lp3718
g20
ag71
ag3
ag4
ag10
ag3
aa(lp3719
g197
ag3
aV16
p3720
aa(lp3721
g136
aV10
p3722
aa(lp3723
g245
aV10
p3724
aa(lp3725
g51
ag4
aV10
p3726
ag29
aa(lp3727
g7
ag3
ag5
ag3
aa(lp3728
g31
ag17
ag40
ag3
aa(lp3729
g26
aV10
p3730
aa(lp3731
g20
ag27
aa(lp3732
g20
ag3
ag27
aa(lp3733
g36
ag2
ag17
ag4
ag12
aa(lp3734
g36
ag2
ag17
ag40
ag3
aa(lp3735
g20
ag3
ag5
ag3
aa(lp3736
g20
ag40
ag3
aa(lp3737
g4
ag3
ag27
aa(lp3738
g36
ag2
ag3
aV18
p3739
ag29
aa(lp3740
g26
ag27
aa(lp3741
g36
ag40
ag4
aa(lp3742
g16
ag8
aa(lp3743
a(lp3744
g16
ag17
ag12
aa(lp3745
g42
ag3
ag4
ag27
aa(lp3746
g20
aV11
p3747
aa(lp3748
g29
ag3
ag10
ag29
aa(lp3749
g2
ag40
ag3
aa(lp3750
g82
aV16
p3751
aa(lp3752
g197
aV15
p3753
aa(lp3754
g20
ag23
ag3
aV13
p3755
aa(lp3756
g7
ag10
aV12
p3757
aa(lp3758
g36
ag2
ag3
ag27
aa(lp3759
g136
aV10
p3760
aa(lp3761
g36
ag17
ag12
aa(lp3762
g36
ag2
ag17
ag8
ag4
aa(lp3763
g20
ag23
ag3
aV13
p3764
aa(lp3765
g82
ag3
ag27
aa(lp3766
g245
ag10
ag12
aa(lp3767
g51
ag8
aa(lp3768
g23
ag3
ag10
ag29
aa(lp3769
g7
ag17
ag10
aV14
p3770
aa(lp3771
g20
ag8
aa(lp3772
g36
ag2
ag17
ag3
aV13
p3773
aa(lp3774
g82
ag3
ag10
aa(lp3775
g26
ag3
ag12
aa(lp3776
g2
ag3
ag10
aa(lp3777
g20
ag27
aa(lp3778
g31
ag3
ag110
ag3
aa(lp3779
g16
ag10
ag40
ag3
aa(lp3780
g26
ag40
aa(lp3781
g7
ag17
ag3
aV19
p3782
ag29
aa(lp3783
g26
ag8
aa(lp3784
g34
ag3
ag110
aa(lp3785
g4
aV22
p3786
aa(lp3787
g4
aV22
p3788
aa(lp3789
g2
ag8
aa(lp3790
a(lp3791
g20
ag3
ag5
aa(lp3792
g16
ag17
ag3
ag8
aa(lp3793
g26
ag10
aV12
p3794
aa(lp3795
g20
ag23
ag8
aa(lp3796
g7
ag10
aV12
p3797
ag3
aa(lp3798
g36
ag17
aV14
p3799
aa(lp3800
g14
ag3
ag4
ag10
aa(lp3801
g14
ag3
ag4
ag5
ag29
aa(lp3802
g136
aV10
p3803
aa(lp3804
g31
ag17
ag8
ag4
aa(lp3805
g31
aV11
p3806
aa(lp3807
g20
ag23
ag3
ag5
ag3
aa(lp3808
g136
aV10
p3809
aa(lp3810
g136
aV17
p3811
ag3
aa(lp3812
g136
aV10
p3813
ag29
aa(lp3814
g20
ag71
ag40
aa(lp3815
g31
ag40
ag3
aa(lp3816
g16
ag17
ag4
ag40
ag3
aa(lp3817
g7
ag27
aa(lp3818
g7
ag3
ag5
aa(lp3819
g34
ag10
ag4
aV21
p3820
aa(lp3821
g20
ag10
aV16
p3822
aa(lp3823
g20
ag3
ag5
aa(lp3824
g4
aV10
p3825
ag29
aa(lp3826
g14
ag3
ag27
aa(lp3827
g23
ag40
ag4
aa(lp3828
g42
ag3
ag4
ag5
aa(lp3829
g16
ag10
ag4
aV10
p3830
ag3
aa(lp3831
g197
ag3
ag12
ag29
aa(lp3832
g82
ag3
ag10
aa(lp3833
g20
ag4
aV10
p3834
ag29
aa(lp3835
g16
aV11
p3836
aa(lp3837
g16
ag3
ag10
ag29
aa(lp3838
g7
ag12
aa(lp3839
g36
ag2
ag17
ag3
ag5
aa(lp3840
g136
ag3
aV13
p3841
ag3
aa(lp3842
g7
ag17
ag3
ag4
ag8
aa(lp3843
g7
ag3
aV11
p3844
aa(lp3845
g26
ag3
aV13
p3846
ag3
aa(lp3847
g82
ag8
aa(lp3848
g31
ag17
ag10
ag12
ag29
aa(lp3849
g82
ag3
ag10
ag3
aa(lp3850
g136
ag8
aa(lp3851
g136
ag3
ag10
ag3
aa(lp3852
g71
ag3
ag110
aa(lp3853
g4
ag3
ag10
ag3
ag29
aa(lp3854
a(lp3855
g31
ag17
ag3
ag10
aa(lp3856
g4
aV10
p3857
ag29
aa(lp3858
g20
ag3
ag27
aa(lp3859
g4
ag3
ag27
aa(lp3860
g7
aV10
p3861
ag27
aa(lp3862
g26
ag3
aV18
p3863
ag29
aa(lp3864
g16
ag10
ag4
ag40
ag3
aa(lp3865
g16
ag3
aV19
p3866
aa(lp3867
g2
ag40
ag3
aa(lp3868
g7
aV12
p3869
ag3
aa(lp3870
g14
aV17
p3871
ag3
aa(lp3872
g29
aV10
p3873
ag29
aa(lp3874
g7
aV11
p3875
aa(lp3876
g20
ag3
aV16
p3877
aa(lp3878
g7
ag17
ag3
aV13
p3879
ag3
aa(lp3880
g197
ag3
ag10
ag4
aa(lp3881
g23
ag3
aV13
p3882
ag3
aa(lp3883
a(lp3884
a(lp3885
g7
ag17
ag10
aV16
p3886
aa(lp3887
a(lp3888
g82
ag3
ag12
ag29
aa(lp3889
g7
ag3
ag10
aa(lp3890
g16
ag8
aa(lp3891
g197
ag3
aV19
p3892
ag29
aa(lp3893
g36
ag40
ag4
aa(lp3894
g245
ag10
aV10
p3895
ag3
aa(lp3896
g36
ag42
ag10
aV12
p3897
ag3
aa(lp3898
g31
ag17
ag3
ag10
ag3
aa(lp3899
g7
ag4
ag8
ag4
aa(lp3900
a(lp3901
g36
ag17
ag8
ag4
aa(lp3902
a(lp3903
g20
ag3
aV14
p3904
aa(lp3905
g36
aV11
p3906
aa(lp3907
g197
ag3
ag10
ag3
aa(lp3908
g20
ag71
ag3
aV13
p3909
aa(lp3910
g136
ag40
ag3
aa(lp3911
g14
ag3
ag4
ag5
ag29
aa(lp3912
g20
ag71
ag10
aa(lp3913
g82
ag8
aa(lp3914
g14
ag3
aV16
p3915
aa(lp3916
g7
ag4
ag8
ag4
aa(lp3917
g16
ag10
ag40
ag3
aa(lp3918
g2
ag12
ag29
aa(lp3919
g136
ag3
aV13
p3920
ag3
aa(lp3921
g51
ag3
ag5
ag29
aa(lp3922
g4
aV17
p3923
aa(lp3924
a(lp3925
g51
ag12
aa(lp3926
g36
ag42
ag17
ag3
aV16
p3927
aa(lp3928
g51
ag4
ag27
aa(lp3929
g36
ag2
ag3
aV18
p3930
ag29
aa(lp3931
g136
ag12
aa(lp3932
g36
ag3
ag10
ag3
aa(lp3933
g36
ag17
ag12
aa(lp3934
g36
ag2
ag17
ag3
ag4
aV23
p3935
aa(lp3936
g7
ag3
ag110
aa(lp3937
g31
ag17
aV10
p3938
aa(lp3939
g20
ag23
ag4
ag12
aa(lp3940
g197
ag27
aa(lp3941
g31
ag3
aV15
p3942
aa(lp3943
a(lp3944
g14
ag3
aV15
p3945
aa(lp3946
g7
ag17
ag3
ag110
aa(lp3947
a(lp3948
g7
ag3
ag4
ag5
aa(lp3949
g20
ag23
ag3
ag5
aa(lp3950
g36
ag2
ag40
ag4
ag29
aa(lp3951
g26
ag3
ag12
aa(lp3952
g51
ag8
ag4
ag29
aa(lp3953
g4
ag12
ag29
aa(lp3954
g20
ag12
ag29
aa(lp3955
g7
ag3
ag10
ag4
aa(lp3956
g20
ag3
aV13
p3957
aa(lp3958
g31
ag3
aV11
p3959
aa(lp3960
g2
ag4
ag27
aa(lp3961
g34
ag3
ag27
aa(lp3962
g20
ag3
aV13
p3963
aa(lp3964
a(lp3965
g197
ag3
ag27
aa(lp3966
g26
ag3
ag110
aa(lp3967
g34
ag3
ag12
aa(lp3968
g16
ag3
ag10
aa(lp3969
g825
ag3
ag12
ag29
aa(lp3970
g34
ag3
ag12
aa(lp3971
g7
ag17
ag8
ag4
ag29
aa(lp3972
g16
ag17
ag4
ag12
ag29
aa(lp3973
g136
aV10
p3974
aa(lp3975
g4
ag40
ag29
aa(lp3976
g29
ag40
ag3
ag29
aa(lp3977
g31
ag8
aa(lp3978
g7
ag17
ag3
aV15
p3979
aa(lp3980
g20
ag27
aa(lp3981
g20
ag3
aV13
p3982
ag3
aa(lp3983
g16
ag40
ag3
aa(lp3984
g36
ag2
ag17
ag3
ag10
ag3
aa(lp3985
g20
ag71
ag3
aV16
p3986
aa(lp3987
g20
ag71
ag3
aV16
p3988
aa(lp3989
g26
ag10
aV16
p3990
aa(lp3991
g34
ag12
aa(lp3992
g245
ag12
aa(lp3993
g245
ag12
aa(lp3994
g245
ag8
ag4
aa(lp3995
g16
aV15
p3996
aa(lp3997
g197
ag3
ag27
ag29
aa(lp3998
g34
ag12
ag29
aa(lp3999
g82
ag3
ag4
ag8
aa(lp4000
g36
ag2
ag3
ag10
aa(lp4001
g4
aV12
p4002
aa(lp4003
g4
ag40
ag29
aa(lp4004
a(lp4005
g36
ag17
ag4
ag27
aa(lp4006
g7
ag17
ag3
aV15
p4007
aa(lp4008
g20
ag3
ag4
aV13
p4009
ag3
aa(lp4010
g2
ag3
ag4
ag5
aa(lp4011
g20
ag23
ag3
ag4
aV21
p4012
aa(lp4013
g82
ag3
ag27
aa(lp4014
g7
ag17
ag3
ag27
aa(lp4015
g197
ag3
ag27
ag29
aa(lp4016
g16
ag17
ag8
aa(lp4017
g197
ag27
aa(lp4018
g36
ag2
ag17
ag40
ag4
aa(lp4019
g36
ag3
ag5
ag3
aa(lp4020
g7
ag3
ag27
aa(lp4021
g36
ag42
ag17
ag3
ag27
aa(lp4022
g245
ag4
ag12
ag29
aa(lp4023
g20
ag3
aV13
p4024
aa(lp4025
g36
ag17
ag3
ag4
ag10
aa(lp4026
g82
ag3
aV19
p4027
ag29
aa(lp4028
g14
ag3
ag27
aa(lp4029
g23
ag3
aV14
p4030
aa(lp4031
g51
ag4
ag27
aa(lp4032
g31
ag17
ag8
aa(lp4033
g71
ag3
ag27
aa(lp4034
g23
ag3
ag241
ag29
aa(lp4035
g245
ag4
ag12
ag29
aa(lp4036
g245
ag12
aa(lp4037
g36
ag42
ag10
ag8
ag29
aa(lp4038
g14
ag3
ag10
ag4
aa(lp4039
g2
ag3
aV13
p4040
ag3
aa(lp4041
g20
ag71
ag10
ag40
ag4
aa(lp4042
g7
ag17
ag3
ag27
aa(lp4043
g20
ag3
aV16
p4044
ag29
aa(lp4045
g7
ag4
ag27
aa(lp4046
g82
ag3
ag110
ag3
aa(lp4047
a(lp4048
g20
ag23
ag3
ag4
ag110
aa(lp4049
g26
ag10
ag12
aa(lp4050
g2
ag3
ag10
aa(lp4051
g82
ag3
aV14
p4052
aa(lp4053
g36
ag40
ag4
aa(lp4054
g2
ag3
ag10
aa(lp4055
g20
ag23
ag27
aa(lp4056
g34
ag3
ag27
aa(lp4057
g7
ag4
ag27
aa(lp4058
g42
ag3
ag4
aa(lp4059
g82
ag3
ag4
ag110
aa(lp4060
g4
ag3
aV13
p4061
ag3
aa(lp4062
g7
ag3
ag4
ag5
aa(lp4063
g34
ag12
ag29
aa(lp4064
g31
ag3
aV11
p4065
aa(lp4066
g16
aV15
p4067
aa(lp4068
g51
ag4
aV20
p4069
aa(lp4070
g20
ag71
ag3
ag10
ag4
aa(lp4071
g26
ag3
ag10
ag3
aa(lp4072
g36
ag42
ag3
aV14
p4073
aa(lp4074
g7
ag17
aV14
p4075
aa(lp4076
g16
ag17
ag3
aV21
p4077
aa(lp4078
g20
ag3
ag10
ag3
aa(lp4079
g20
ag3
ag10
ag3
aa(lp4080
g16
ag17
ag3
ag10
ag3
aa(lp4081
g7
ag4
ag27
aa(lp4082
g16
ag3
ag4
ag10
aa(lp4083
g36
ag2
ag4
ag12
aa(lp4084
g20
ag3
ag5
ag3
aa(lp4085
g20
ag71
ag3
aV18
p4086
ag3
aa(lp4087
g2
ag40
aa(lp4088
g197
ag3
aV13
p4089
aa(lp4090
g7
ag12
aa(lp4091
g4
ag40
aa(lp4092
g20
ag71
ag825
aa(lp4093
g71
ag3
aV13
p4094
ag3
aa(lp4095
g36
ag2
ag3
ag4
ag5
aa(lp4096
g4
ag3
ag10
aa(lp4097
g36
ag3
aV13
p4098
aa(lp4099
g4
ag40
ag29
aa(lp4100
g20
ag71
ag3
aV13
p4101
aa(lp4102
g136
ag3
aV13
p4103
ag3
ag29
aa(lp4104
a(lp4105
g14
ag3
ag241
aa(lp4106
g7
ag17
ag3
ag5
aa(lp4107
g36
ag17
ag3
ag5
aa(lp4108
g20
ag3
aV13
p4109
ag3
aa(lp4110
g36
ag8
aa(lp4111
g245
ag27
aa(lp4112
g197
ag3
ag10
aa(lp4113
g36
ag2
ag3
ag10
aa(lp4114
g34
ag3
ag27
aa(lp4115
g197
ag3
ag381
ag3
aa(lp4116
g7
ag3
aV13
p4117
aa(lp4118
g23
ag3
aV13
p4119
ag3
aa(lp4120
g82
ag10
aV19
p4121
ag4
aa(lp4122
g20
ag71
ag3
ag10
ag3
aa(lp4123
g36
ag2
ag17
ag3
ag5
aa(lp4124
g197
ag3
ag4
aV23
p4125
aa(lp4126
g82
ag3
ag4
ag5
aa(lp4127
g136
ag3
ag10
ag3
ag29
aa(lp4128
g2
aV16
p4129
ag29
aa(lp4130
g16
ag4
ag12
ag29
aa(lp4131
g2
ag3
ag10
ag3
aa(lp4132
g20
ag40
ag4
aa(lp4133
g4
ag10
aV21
p4134
aa(lp4135
g31
ag3
aV11
p4136
aa(lp4137
a(lp4138
g31
ag17
aV10
p4139
aa(lp4140
g42
ag3
ag10
ag3
aa(lp4141
g7
ag17
ag3
aV15
p4142
aa(lp4143
a(lp4144
g26
ag3
aV13
p4145
aa(lp4146
g7
ag17
ag3
ag5
aa(lp4147
g31
ag10
ag12
aa(lp4148
a(lp4149
g14
ag3
ag4
aV13
p4150
aa(lp4151
a(lp4152
g20
ag23
ag3
ag27
aa(lp4153
g26
aV10
p4154
aa(lp4155
g36
ag17
ag3
ag5
aa(lp4156
g136
ag12
ag29
aa(lp4157
g14
ag3
ag4
ag10
aa(lp4158
g7
ag40
ag4
aa(lp4159
g16
ag3
ag4
ag5
aa(lp4160
g36
ag3
aV13
p4161
ag3
aa(lp4162
g36
ag3
aV13
p4163
aa(lp4164
g20
ag23
ag40
ag3
aa(lp4165
g51
ag4
aV10
p4166
ag29
aa(lp4167
g7
ag17
ag3
aV13
p4168
ag3
aa(lp4169
g29
ag3
ag10
ag29
aa(lp4170
g197
ag3
ag10
aa(lp4171
g245
aV14
p4172
aa(lp4173
g31
ag17
ag8
ag4
aa(lp4174
g23
ag3
ag4
ag5
aa(lp4175
g29
ag3
ag10
ag29
aa(lp4176
g23
aV22
p4177
aa(lp4178
g197
ag3
ag5
aa(lp4179
g136
ag3
ag241
aa(lp4180
g34
ag4
ag40
ag3
aa(lp4181
g36
ag42
ag17
ag3
ag10
aa(lp4182
g136
ag3
ag241
aa(lp4183
g31
aV16
p4184
aa(lp4185
g20
ag23
ag3
aV13
p4186
aa(lp4187
g136
ag3
ag10
aa(lp4188
g36
ag3
aV13
p4189
aa(lp4190
g42
ag3
aV15
p4191
aa(lp4192
g16
ag27
ag29
aa(lp4193
g14
ag3
ag4
ag10
aa(lp4194
g36
ag2
ag3
ag12
aa(lp4195
g23
ag3
aV13
p4196
ag3
aa(lp4197
a(lp4198
a(lp4199
g4
ag8
aa(lp4200
g7
ag3
ag10
aa(lp4201
g36
ag3
aV13
p4202
aa(lp4203
g2
ag40
ag4
aa(lp4204
g197
aV14
p4205
aa(lp4206
g29
ag3
ag8
ag29
aa(lp4207
g7
ag3
ag8
aa(lp4208
g7
ag17
ag3
ag4
ag12
aa(lp4209
a(lp4210
g7
aV16
p4211
aa(lp4212
g36
ag2
ag17
ag3
ag10
aa(lp4213
g7
ag17
aV10
p4214
aa(lp4215
g14
ag3
ag4
ag10
aa(lp4216
g7
ag3
ag5
aa(lp4217
g34
ag27
aa(lp4218
g7
aV15
p4219
aa(lp4220
g36
ag42
ag17
ag3
ag4
ag5
ag3
aa(lp4221
g36
ag42
ag17
ag3
ag10
ag4
aa(lp4222
g20
ag3
ag10
aa(lp4223
g29
ag3
ag10
ag29
aa(lp4224
g36
ag10
aV16
p4225
aa(lp4226
g14
ag3
ag4
ag10
aa(lp4227
g23
ag3
aV13
p4228
ag3
aa(lp4229
g82
aV12
p4230
ag3
aa(lp4231
g26
ag3
ag10
ag3
aa(lp4232
g20
ag3
aV13
p4233
ag3
aa(lp4234
g136
ag3
ag241
aa(lp4235
g31
ag17
ag3
ag10
ag3
aa(lp4236
g2
ag3
ag8
aa(lp4237
g36
ag3
ag110
aa(lp4238
g36
ag2
ag3
aV23
p4239
aa(lp4240
g36
ag2
ag17
aV21
p4241
aa(lp4242
g16
ag17
aV17
p4243
ag3
aa(lp4244
g7
ag3
ag4
ag27
aa(lp4245
g29
ag12
ag29
aa(lp4246
g36
ag3
ag4
ag12
ag29
aa(lp4247
g31
ag12
aa(lp4248
g31
ag17
ag8
ag4
aa(lp4249
g82
ag3
aV19
p4250
ag29
aa(lp4251
g7
ag10
aV12
p4252
aa(lp4253
g20
ag23
ag8
ag4
aa(lp4254
g26
ag27
aa(lp4255
a(lp4256
g82
ag3
ag241
aa(lp4257
g26
ag3
aV13
p4258
ag3
aa(lp4259
g36
ag17
ag3
aV19
p4260
aa(lp4261
g51
ag4
ag124
aa(lp4262
g7
ag17
ag3
aV13
p4263
ag3
aa(lp4264
g20
ag71
ag3
ag110
aa(lp4265
a(lp4266
a(lp4267
g31
ag17
aV10
p4268
aa(lp4269
g16
ag3
aV11
p4270
aa(lp4271
g2
ag3
aV13
p4272
aa(lp4273
g36
ag2
ag17
ag8
ag4
aa(lp4274
g197
ag3
ag10
ag3
aa(lp4275
g36
ag42
ag10
ag8
ag4
aa(lp4276
g20
ag23
ag3
ag27
aa(lp4277
g136
ag40
aa(lp4278
g26
ag40
aa(lp4279
g16
ag3
ag4
ag10
aa(lp4280
a(lp4281
g245
aV22
p4282
aa(lp4283
g34
ag8
ag29
aa(lp4284
g82
aV17
p4285
ag4
aa(lp4286
g29
ag3
ag5
ag3
aa(lp4287
g42
ag3
aV23
p4288
aa(lp4289
g36
ag2
ag17
ag8
ag4
aa(lp4290
g36
ag2
ag17
ag4
ag27
aa(lp4291
g82
ag3
ag27
aa(lp4292
g42
ag3
ag12
aa(lp4293
g16
ag17
ag3
ag27
aa(lp4294
g16
ag3
aV18
p4295
aa(lp4296
g36
ag2
ag12
aa(lp4297
g7
ag3
ag10
aa(lp4298
g36
ag17
aV10
p4299
aa(lp4300
g20
ag23
ag3
ag10
aa(lp4301
a(lp4302
g14
ag3
aV16
p4303
aa(lp4304
g16
ag17
ag8
ag4
aa(lp4305
g16
ag3
ag5
aa(lp4306
g7
ag17
ag3
ag5
aa(lp4307
g16
ag8
ag4
aa(lp4308
g20
ag23
ag3
ag27
aa(lp4309
g36
ag42
ag3
ag241
ag29
aa(lp4310
g36
ag42
ag17
ag3
ag4
ag5
ag3
aa(lp4311
g4
ag3
ag27
aa(lp4312
g20
ag3
ag5
ag3
aa(lp4313
a(lp4314
g36
ag42
ag3
ag27
aa(lp4315
g34
ag12
ag29
aa(lp4316
g82
ag12
aa(lp4317
g36
ag17
ag4
ag8
aa(lp4318
a(lp4319
g36
ag2
ag17
ag3
ag12
aa(lp4320
g36
ag2
ag17
ag3
ag10
aa(lp4321
g14
ag3
ag5
aa(lp4322
g31
ag3
aV11
p4323
aa(lp4324
g23
ag3
ag4
aV13
p4325
aa(lp4326
g7
aV16
p4327
aa(lp4328
g7
ag3
ag27
aa(lp4329
g7
ag3
ag12
aa(lp4330
g82
ag8
aa(lp4331
a(lp4332
g29
ag27
ag29
aa(lp4333
g197
ag3
ag10
aa(lp4334
g197
ag3
ag10
aa(lp4335
g7
aV10
p4336
aa(lp4337
g36
ag2
ag17
ag3
ag10
aa(lp4338
g20
aV21
p4339
aa(lp4340
g4
ag40
aa(lp4341
g136
aV17
p4342
aa(lp4343
g29
ag3
ag10
ag29
aa(lp4344
g82
ag3
aV16
p4345
aa(lp4346
g36
ag42
ag3
ag10
ag3
aa(lp4347
g20
ag3
aV13
p4348
aa(lp4349
g7
ag4
ag40
ag4
aa(lp4350
g20
ag3
ag27
aa(lp4351
g26
aV10
p4352
aa(lp4353
g16
ag3
ag4
ag5
ag29
aa(lp4354
g34
ag12
ag29
aa(lp4355
g26
aV10
p4356
aa(lp4357
g16
ag3
ag10
ag4
aa(lp4358
g136
ag3
ag27
aa(lp4359
g82
ag40
ag3
aa(lp4360
g20
ag3
ag10
aa(lp4361
g20
ag3
aV18
p4362
ag3
aa(lp4363
g4
aV11
p4364
aa(lp4365
g31
aV10
p4366
aa(lp4367
g20
ag3
aV13
p4368
aa(lp4369
g7
ag3
aV13
p4370
aa(lp4371
g36
ag2
ag17
ag3
aV13
p4372
ag3
aa(lp4373
g36
ag2
ag381
aa(lp4374
g197
ag3
ag10
ag4
aa(lp4375
g7
ag40
ag4
aa(lp4376
g36
ag42
ag3
aV13
p4377
ag3
aa(lp4378
g26
aV11
p4379
aa(lp4380
g34
ag10
ag40
ag4
aa(lp4381
g7
ag17
ag3
ag241
aa(lp4382
g7
ag8
ag4
aa(lp4383
g51
ag10
aV16
p4384
aa(lp4385
g36
ag42
ag3
aV13
p4386
ag3
aa(lp4387
a(lp4388
g36
ag42
ag3
aV13
p4389
aa(lp4390
g4
ag40
aa(lp4391
g7
ag3
ag8
ag4
aa(lp4392
g16
ag17
ag3
ag12
ag29
aa(lp4393
g2
ag4
aV21
p4394
aa(lp4395
g26
ag27
aa(lp4396
g20
ag71
ag10
ag4
ag40
aa(lp4397
g136
aV17
p4398
aa(lp4399
g136
ag3
ag12
aa(lp4400
g20
ag71
ag10
aV16
p4401
aa(lp4402
g36
ag8
ag4
aa(lp4403
g26
ag10
ag40
aa(lp4404
g82
ag40
ag29
aa(lp4405
g245
ag10
ag12
aa(lp4406
g20
ag23
ag3
ag4
ag5
ag29
aa(lp4407
g16
ag17
aV10
p4408
aa(lp4409
g2
ag27
aa(lp4410
g36
ag2
ag17
ag40
aa(lp4411
g7
ag17
aV14
p4412
aa(lp4413
g20
ag3
ag5
aa(lp4414
g7
aV21
p4415
aa(lp4416
g26
aV20
p4417
aa(lp4418
g36
ag2
ag4
ag381
aa(lp4419
g29
ag3
ag10
ag3
ag29
aa(lp4420
a(lp4421
g34
ag3
ag10
ag4
aa(lp4422
g14
ag3
ag5
aa(lp4423
g20
ag23
aV10
p4424
ag29
aa(lp4425
g34
ag10
ag40
aa(lp4426
g7
aV10
p4427
aa(lp4428
g36
ag2
ag3
aV18
p4429
ag3
aa(lp4430
g16
ag10
aV12
p4431
ag3
aa(lp4432
g7
aV15
p4433
aa(lp4434
g16
ag10
aV12
p4435
ag3
aa(lp4436
g82
ag27
aV10
p4437
aa(lp4438
g16
ag10
aV12
p4439
ag3
aa(lp4440
g51
ag27
ag29
aa(lp4441
a(lp4442
g26
ag3
aV23
p4443
aa(lp4444
g2
ag3
aV13
p4445
ag3
aa(lp4446
g26
ag10
ag40
ag3
aa(lp4447
g26
ag8
aa(lp4448
g36
ag17
ag3
ag4
aV13
p4449
aa(lp4450
g136
ag3
ag12
aa(lp4451
g14
ag27
aa(lp4452
g20
ag23
ag3
ag12
aa(lp4453
g16
aV15
p4454
aa(lp4455
g31
ag17
ag10
ag8
ag4
aa(lp4456
g23
aV22
p4457
aa(lp4458
g31
ag3
ag5
ag3
aa(lp4459
g136
ag40
aa(lp4460
g7
ag3
ag12
aa(lp4461
g20
aV21
p4462
aa(lp4463
g245
ag40
ag4
aa(lp4464
g71
ag3
ag5
ag29
aa(lp4465
g26
aV10
p4466
aa(lp4467
g82
aV22
p4468
aa(lp4469
g36
ag17
ag3
ag27
aa(lp4470
g7
ag8
ag4
aa(lp4471
g26
aV16
p4472
aa(lp4473
g42
ag3
aV19
p4474
ag29
aa(lp4475
g14
ag3
ag5
aa(lp4476
g51
ag4
ag27
aa(lp4477
g51
ag3
ag8
ag4
aa(lp4478
g20
aV21
p4479
aa(lp4480
g31
ag3
ag5
aa(lp4481
g36
ag42
ag3
ag10
aa(lp4482
g20
ag3
ag10
ag3
aa(lp4483
g16
ag17
ag10
aV10
p4484
ag3
aa(lp4485
g20
ag23
ag3
aV13
p4486
aa(lp4487
g136
ag3
ag5
ag29
aa(lp4488
g245
ag40
ag3
aa(lp4489
g42
ag3
ag10
aa(lp4490
g14
aV16
p4491
aa(lp4492
g16
ag17
ag10
aV10
p4493
ag3
aa(lp4494
g34
ag3
ag12
aa(lp4495
g71
ag10
aV17
p4496
aa(lp4497
g31
aV10
p4498
aa(lp4499
g42
ag3
aV18
p4500
aa(lp4501
g4
ag381
aa(lp4502
g31
ag3
aV15
p4503
aa(lp4504
g20
ag71
ag10
ag8
ag4
aa(lp4505
g36
ag2
ag3
ag12
aa(lp4506
g136
ag3
ag27
aa(lp4507
g7
ag3
aV13
p4508
aa(lp4509
g20
ag23
ag3
ag4
ag10
aa(lp4510
g136
ag3
ag10
ag4
aa(lp4511
g245
ag10
aV10
p4512
aa(lp4513
g20
ag71
ag10
aV10
p4514
ag3
aa(lp4515
g16
ag17
ag27
aa(lp4516
g136
aV17
p4517
aa(lp4518
g7
ag3
ag12
aa(lp4519
g51
ag3
ag4
ag5
aa(lp4520
g26
ag3
aV20
p4521
aa(lp4522
g20
ag23
aV10
p4523
aa(lp4524
g7
aV10
p4525
ag3
aa(lp4526
g20
ag3
ag5
aa(lp4527
g245
ag3
ag8
ag4
aa(lp4528
g7
ag40
aa(lp4529
g31
ag3
ag12
aa(lp4530
g29
ag3
ag10
ag29
aa(lp4531
g31
ag3
ag10
ag3
aa(lp4532
a(lp4533
g2
ag40
ag4
aa(lp4534
g20
ag3
aV13
p4535
aa(lp4536
g20
ag23
ag3
aV15
p4537
aa(lp4538
g4
ag12
aa(lp4539
g20
ag3
ag5
ag3
aa(lp4540
g82
ag3
ag4
ag5
aa(lp4541
g34
ag27
aa(lp4542
g2
aV16
p4543
aa(lp4544
g197
ag8
ag4
aa(lp4545
g16
ag17
ag3
ag4
ag5
aa(lp4546
g31
ag3
aV13
p4547
ag3
aa(lp4548
g16
ag12
aa(lp4549
g34
aV11
p4550
aa(lp4551
g20
ag23
ag3
ag4
ag110
aa(lp4552
g31
ag8
aa(lp4553
g20
ag23
ag40
ag4
aa(lp4554
g20
ag23
ag381
aa(lp4555
g197
ag3
ag27
aa(lp4556
a(lp4557
g31
ag3
ag10
ag3
aa(lp4558
g136
ag8
aa(lp4559
g36
ag3
ag10
aa(lp4560
g14
ag3
aV18
p4561
ag3
aa(lp4562
g197
ag3
ag10
ag3
aa(lp4563
g245
aV10
p4564
aa(lp4565
g36
ag2
ag17
ag3
ag10
ag3
aa(lp4566
g197
ag3
ag12
aa(lp4567
g7
ag3
ag12
aa(lp4568
g2
ag3
ag10
ag4
aa(lp4569
g16
ag10
ag12
aa(lp4570
g16
ag10
ag8
aa(lp4571
g2
ag3
ag4
ag5
aa(lp4572
g36
ag42
ag17
ag3
ag4
aV16
p4573
aa(lp4574
g16
ag4
ag12
ag29
aa(lp4575
g7
ag4
aV10
p4576
ag3
aa(lp4577
a(lp4578
g36
ag42
ag17
ag3
ag10
aa(lp4579
g7
aV11
p4580
aa(lp4581
g7
aV10
p4582
aa(lp4583
g4
ag40
ag29
aa(lp4584
g2
ag3
ag10
ag3
aa(lp4585
g136
aV10
p4586
aa(lp4587
g36
ag42
ag3
ag241
ag29
aa(lp4588
g36
ag17
aV17
p4589
ag3
aa(lp4590
g14
ag12
ag29
aa(lp4591
g36
ag42
ag17
ag10
ag40
ag4
aa(lp4592
g136
ag12
ag29
aa(lp4593
g7
ag12
aa(lp4594
g34
ag10
ag4
aV10
p4595
ag3
aa(lp4596
g16
ag17
ag10
ag4
aV10
p4597
aa(lp4598
g36
ag2
ag17
ag3
ag5
aa(lp4599
g29
ag3
ag12
ag29
aa(lp4600
g31
ag17
ag3
ag10
ag3
aa(lp4601
g36
ag42
ag3
ag5
ag29
aa(lp4602
g36
ag42
ag3
ag241
ag29
aa(lp4603
g82
aV10
p4604
ag29
aa(lp4605
g7
aV11
p4606
aa(lp4607
g16
ag3
aV15
p4608
aa(lp4609
g26
ag3
aV11
p4610
aa(lp4611
g36
ag4
aV17
p4612
aa(lp4613
g14
ag3
aV16
p4614
aa(lp4615
g16
ag17
ag10
ag4
aV10
p4616
aa(lp4617
g29
ag3
ag27
ag29
aa(lp4618
g36
ag3
aV14
p4619
aa(lp4620
g29
ag3
ag27
ag29
aa(lp4621
g20
ag23
ag3
aV13
p4622
ag3
aa(lp4623
g36
ag42
ag10
ag4
aV10
p4624
ag3
aa(lp4625
a(lp4626
g7
aV15
p4627
aa(lp4628
g34
ag8
ag29
aa(lp4629
g7
ag3
ag5
aa(lp4630
g197
ag3
aV18
p4631
ag3
aa(lp4632
g197
ag3
ag10
ag4
aa(lp4633
g7
ag3
ag12
aa(lp4634
g36
ag17
ag12
aa(lp4635
g42
ag3
aV21
p4636
aa(lp4637
g51
ag40
ag4
ag29
aa(lp4638
g26
ag3
aV13
p4639
ag3
aa(lp4640
g31
ag17
ag8
aa(lp4641
g26
ag3
ag10
aa(lp4642
g16
ag3
aV18
p4643
ag29
aa(lp4644
g197
ag3
ag10
ag3
ag29
aa(lp4645
g16
ag3
aV14
p4646
aa(lp4647
g20
ag40
ag4
aa(lp4648
g136
aV10
p4649
aa(lp4650
g29
ag3
ag8
ag29
aa(lp4651
g31
ag17
ag3
ag12
aa(lp4652
g16
ag10
ag12
aa(lp4653
g16
ag17
ag10
ag4
aV10
p4654
aa(lp4655
g136
ag10
ag40
ag3
aa(lp4656
g197
ag3
ag27
aa(lp4657
g82
ag3
ag10
ag3
aa(lp4658
g42
ag3
ag4
ag27
aa(lp4659
g42
ag3
ag4
ag27
aa(lp4660
g20
ag71
ag3
aV16
p4661
aa(lp4662
g14
ag3
ag27
aa(lp4663
g36
ag2
ag17
ag3
ag4
ag27
aa(lp4664
g14
ag3
ag10
aa(lp4665
g136
ag3
ag12
aa(lp4666
g36
ag17
aV19
p4667
aa(lp4668
g82
ag10
aV14
p4669
aa(lp4670
g20
ag3
ag5
ag29
aa(lp4671
g20
ag23
ag40
aa(lp4672
g31
ag17
ag3
ag12
ag29
aa(lp4673
g20
ag3
aV18
p4674
aa(lp4675
g14
ag3
ag10
ag3
aa(lp4676
g51
ag4
ag27
aa(lp4677
g34
ag10
ag40
ag3
aa(lp4678
g36
ag17
ag4
aV21
p4679
aa(lp4680
g245
ag4
ag12
aa(lp4681
g23
aV10
p4682
ag29
aa(lp4683
g245
ag12
aa(lp4684
g14
ag3
ag10
aa(lp4685
g23
ag3
ag241
ag29
aa(lp4686
g20
ag23
ag4
aV10
p4687
aa(lp4688
g20
ag71
ag3
aV16
p4689
aa(lp4690
g7
ag17
ag3
ag241
ag29
aa(lp4691
g197
ag3
ag4
ag241
aa(lp4692
g7
ag10
ag12
aa(lp4693
a(lp4694
g16
ag3
ag110
aa(lp4695
g36
ag2
ag3
ag12
aa(lp4696
g82
ag10
ag8
ag4
aa(lp4697
g16
ag17
ag3
ag10
ag4
aa(lp4698
g16
ag4
aV21
p4699
aa(lp4700
g7
ag3
ag8
ag4
aa(lp4701
g42
ag3
ag4
ag10
ag3
aa(lp4702
g82
ag10
aV16
p4703
aa(lp4704
g31
ag3
ag110
ag3
aa(lp4705
g31
ag10
aV12
p4706
ag3
aa(lp4707
g34
ag4
aV10
p4708
aa(lp4709
a(lp4710
g4
ag12
ag29
aa(lp4711
g136
ag3
aV16
p4712
aa(lp4713
g2
ag40
aa(lp4714
g34
ag4
aV10
p4715
aa(lp4716
g36
ag17
ag27
aa(lp4717
g7
ag27
aa(lp4718
g7
ag27
aa(lp4719
g20
ag23
ag3
aV22
p4720
aa(lp4721
g136
ag3
ag12
aa(lp4722
g20
ag71
ag3
ag27
aa(lp4723
g245
ag4
aV10
p4724
ag29
aa(lp4725
g51
ag4
ag8
aa(lp4726
g7
ag8
aa(lp4727
g36
ag2
ag3
ag10
ag3
aa(lp4728
g82
ag3
ag10
aa(lp4729
g2
ag3
ag4
ag10
ag3
aa(lp4730
g26
ag3
aV18
p4731
aa(lp4732
g7
ag3
aV13
p4733
aa(lp4734
g16
ag3
ag10
ag3
aa(lp4735
g2
ag3
aV13
p4736
aa(lp4737
g42
ag3
ag4
ag27
aa(lp4738
g16
ag3
ag241
ag29
aa(lp4739
g36
ag3
ag12
aa(lp4740
g7
ag3
ag4
aV13
p4741
aa(lp4742
g2
ag3
ag4
ag5
aa(lp4743
g42
ag3
ag4
aV16
p4744
aa(lp4745
g31
ag10
ag12
aa(lp4746
g82
ag40
ag4
aa(lp4747
g20
ag23
ag3
ag5
ag3
aa(lp4748
g14
ag3
aV18
p4749
aa(lp4750
g82
ag3
aV18
p4751
aa(lp4752
g34
ag3
ag5
ag29
aa(lp4753
g4
ag3
ag10
ag3
aa(lp4754
g26
aV10
p4755
aa(lp4756
g20
ag23
aV20
p4757
aa(lp4758
g34
ag10
ag4
ag40
aa(lp4759
g136
ag3
ag10
ag3
ag29
aa(lp4760
g245
ag40
ag3
aa(lp4761
g136
aV17
p4762
aa(lp4763
g34
ag3
ag27
aa(lp4764
g16
ag17
ag40
ag4
aa(lp4765
g16
ag4
ag124
aa(lp4766
g36
ag17
aV14
p4767
aa(lp4768
g7
ag27
aa(lp4769
g36
ag2
ag17
aV10
p4770
aa(lp4771
g197
ag3
aV20
p4772
aa(lp4773
g36
ag3
ag110
ag3
aa(lp4774
g26
ag8
ag4
ag29
aa(lp4775
g23
aV22
p4776
aa(lp4777
g36
ag2
ag40
ag4
ag29
aa(lp4778
g36
ag2
ag40
ag29
aa(lp4779
g36
ag2
ag381
aa(lp4780
g20
ag4
ag40
ag4
ag29
aa(lp4781
g16
aV11
p4782
aa(lp4783
g36
ag2
ag3
ag10
aa(lp4784
g42
ag3
aV15
p4785
aa(lp4786
g245
ag4
ag40
ag3
aa(lp4787
g82
ag12
aa(lp4788
g36
ag2
ag17
ag3
ag4
aV23
p4789
aa(lp4790
g36
ag17
ag3
ag10
ag3
aa(lp4791
g4
ag3
ag8
aa(lp4792
g16
ag3
ag241
ag29
aa(lp4793
g197
ag3
ag10
ag3
aa(lp4794
g31
ag40
ag3
aa(lp4795
g4
ag3
aV13
p4796
ag3
aa(lp4797
g16
ag17
ag3
ag10
ag3
aa(lp4798
g82
ag3
ag10
aa(lp4799
g34
ag3
ag4
aV21
p4800
aa(lp4801
g16
ag17
ag3
ag4
ag12
ag29
aa(lp4802
g4
ag3
ag10
ag3
ag29
aa(lp4803
g136
ag3
ag10
ag3
ag29
aa(lp4804
g16
ag10
ag4
ag12
aa(lp4805
g20
ag381
aa(lp4806
g31
ag17
ag10
ag8
aa(lp4807
g197
ag4
aV15
p4808
aa(lp4809
g20
ag71
ag3
aV13
p4810
aa(lp4811
g197
ag3
ag10
ag4
aa(lp4812
g29
ag12
ag29
aa(lp4813
g29
ag3
ag10
ag3
ag29
aa(lp4814
g36
ag17
ag12
aa(lp4815
g36
ag2
ag3
ag10
ag29
aa(lp4816
g36
ag2
ag17
ag3
ag4
ag27
aa(lp4817
g16
ag17
ag3
ag12
ag29
aa(lp4818
g4
ag3
ag10
aa(lp4819
g4
ag40
ag3
ag29
aa(lp4820
g82
ag8
aa(lp4821
g16
ag10
ag4
aV10
p4822
ag3
aa(lp4823
g31
ag17
ag10
ag40
ag3
aa(lp4824
g4
ag40
aa(lp4825
g20
ag23
ag381
aa(lp4826
g29
ag27
ag29
aa(lp4827
g197
ag3
ag10
ag4
aa(lp4828
g20
ag71
ag3
ag8
ag4
aa(lp4829
g197
ag3
ag12
aa(lp4830
g7
ag3
aV13
p4831
aa(lp4832
g82
ag3
ag27
aa(lp4833
g197
ag3
ag5
aa(lp4834
a(lp4835
g36
ag3
ag12
aa(lp4836
g26
ag12
aa(lp4837
g16
ag8
aa(lp4838
g16
aV16
p4839
ag29
aa(lp4840
g20
ag71
ag3
ag8
ag4
aa(lp4841
g36
ag42
ag3
ag5
aa(lp4842
g7
ag17
ag3
aV11
p4843
aa(lp4844
g36
ag17
ag3
ag5
ag3
aa(lp4845
g36
ag42
ag17
ag10
ag12
aa(lp4846
g7
ag3
aV13
p4847
aa(lp4848
g82
ag12
aa(lp4849
g245
ag3
ag12
aa(lp4850
g82
ag3
ag10
ag3
aa(lp4851
g26
aV21
p4852
aa(lp4853
g34
ag3
ag27
aa(lp4854
g16
ag3
ag4
ag241
ag29
aa(lp4855
g16
ag3
aV14
p4856
aa(lp4857
g42
ag10
aV10
p4858
aa(lp4859
g29
ag3
ag10
ag29
aa(lp4860
g36
ag8
aa(lp4861
g36
ag3
ag4
ag5
aa(lp4862
g245
ag4
ag12
aa(lp4863
g36
ag2
ag8
ag29
aa(lp4864
g136
aV10
p4865
aa(lp4866
g2
ag3
ag12
aa(lp4867
g42
ag10
ag40
aa(lp4868
g197
ag3
ag5
ag3
aa(lp4869
g14
ag3
ag4
ag8
aa(lp4870
g16
ag4
ag12
aa(lp4871
g14
ag3
ag4
ag5
ag29
aa(lp4872
g7
aV20
p4873
aa(lp4874
g26
ag3
ag10
ag3
aa(lp4875
a(lp4876
g26
aV10
p4877
aa(lp4878
a(lp4879
a(lp4880
g23
ag3
ag27
ag29
aa(lp4881
g82
ag12
aa(lp4882
g26
ag3
ag10
aa(lp4883
g42
ag3
aV16
p4884
aa(lp4885
g20
ag8
aa(lp4886
g82
ag10
aV14
p4887
aa(lp4888
g4
ag40
aa(lp4889
g42
ag3
ag10
aa(lp4890
g4
ag40
aa(lp4891
g36
ag2
ag17
ag40
ag4
aa(lp4892
g36
ag17
ag27
aa(lp4893
g29
ag3
ag10
ag3
ag29
aa(lp4894
g29
ag3
ag10
ag3
ag29
aa(lp4895
g31
ag17
ag3
ag12
aa(lp4896
g16
ag3
ag4
ag5
aa(lp4897
g20
aV17
p4898
ag29
aa(lp4899
g20
ag23
ag3
ag4
ag5
aa(lp4900
g14
ag3
aV13
p4901
ag3
aa(lp4902
g71
ag3
ag241
aa(lp4903
g20
ag23
ag3
ag5
ag3
aa(lp4904
g82
ag3
ag4
ag5
aa(lp4905
g7
ag10
ag40
ag3
aa(lp4906
g14
ag3
ag10
aa(lp4907
g136
ag3
ag12
aa(lp4908
g7
ag17
ag40
ag4
aa(lp4909
g34
ag27
ag29
aa(lp4910
g26
aV10
p4911
aa(lp4912
g31
ag10
aV14
p4913
aa(lp4914
g36
ag42
ag17
ag10
ag4
ag40
ag3
aa(lp4915
g16
aV19
p4916
aa(lp4917
g34
ag10
ag40
ag3
aa(lp4918
g16
ag4
aV15
p4919
aa(lp4920
g34
aV22
p4921
aa(lp4922
g36
ag17
ag3
ag10
ag3
aa(lp4923
g82
aV17
p4924
ag3
aa(lp4925
g16
aV10
p4926
aa(lp4927
g16
ag17
ag3
aV20
p4928
aa(lp4929
g16
aV10
p4930
aa(lp4931
g82
ag3
ag110
aa(lp4932
g82
ag3
ag110
aa(lp4933
g36
ag3
aV13
p4934
aa(lp4935
g197
ag8
aa(lp4936
g29
ag3
ag27
ag29
aa(lp4937
g16
ag8
ag4
aa(lp4938
g16
aV10
p4939
aa(lp4940
g16
ag10
ag40
aa(lp4941
g20
ag3
ag5
ag29
aa(lp4942
g23
ag40
ag4
aa(lp4943
a(lp4944
g20
ag71
ag10
ag40
ag3
aa(lp4945
g20
ag71
ag3
aV16
p4946
aa(lp4947
g20
ag71
ag3
ag10
aa(lp4948
g197
ag3
ag10
ag4
aa(lp4949
g2
ag3
ag27
aa(lp4950
g31
ag17
ag8
ag4
aa(lp4951
g42
ag3
ag4
ag27
aa(lp4952
g2
ag3
ag4
ag10
ag3
aa(lp4953
g136
ag3
ag5
aa(lp4954
g16
ag8
ag4
aa(lp4955
g23
aV10
p4956
ag29
aa(lp4957
g36
ag2
ag17
ag12
aa(lp4958
g36
ag4
aV12
p4959
aa(lp4960
g20
ag23
ag3
ag10
ag4
aa(lp4961
g36
ag4
aV12
p4962
aa(lp4963
g31
ag17
ag3
aV13
p4964
ag3
aa(lp4965
g29
ag3
ag12
ag29
aa(lp4966
g36
ag2
ag12
ag29
aa(lp4967
g136
ag3
aV16
p4968
aa(lp4969
g42
ag10
aV21
p4970
aa(lp4971
g197
ag3
ag10
ag29
aa(lp4972
g34
ag10
aV21
p4973
aa(lp4974
g23
ag3
ag10
aa(lp4975
g29
ag40
ag4
ag29
aa(lp4976
g36
ag42
ag3
aV15
p4977
aa(lp4978
g197
ag3
aV18
p4979
ag3
aa(lp4980
g36
ag2
ag4
aV17
p4981
aa(lp4982
g31
ag8
aa(lp4983
g42
ag3
ag8
aa(lp4984
g71
ag3
ag27
aa(lp4985
g42
ag3
ag8
ag4
aa(lp4986
g31
ag8
aa(lp4987
g36
ag2
ag4
aV15
p4988
aa(lp4989
g31
ag3
aV15
p4990
aa(lp4991
g82
ag3
ag12
ag29
aa(lp4992
g7
ag3
ag110
aa(lp4993
g36
ag42
ag10
aV19
p4994
ag4
aa(lp4995
g7
ag4
aV15
p4996
aa(lp4997
g23
ag27
aa(lp4998
g26
ag10
aV19
p4999
aa(lp5000
g26
ag10
ag8
aa(lp5001
g197
ag3
ag10
ag4
aa(lp5002
g29
ag40
ag29
aa(lp5003
g51
ag10
aV11
p5004
aa(lp5005
g36
ag2
ag27
aa(lp5006
g31
ag17
ag3
ag10
ag3
aa(lp5007
g36
ag2
ag17
ag3
ag10
ag3
aa(lp5008
g26
ag3
aV18
p5009
aa(lp5010
g7
ag3
ag4
ag27
aa(lp5011
g2
ag8
aa(lp5012
g4
ag3
aV11
p5013
aa(lp5014
g26
ag10
aV12
p5015
ag3
aa(lp5016
g7
ag3
ag5
ag3
aa(lp5017
g51
ag4
ag27
aa(lp5018
g36
ag2
aV10
p5019
ag3
aa(lp5020
g2
ag40
ag4
aa(lp5021
g7
ag40
ag4
aa(lp5022
g16
ag3
ag8
ag4
aa(lp5023
g31
ag3
ag12
aa(lp5024
g31
ag3
ag5
ag3
aa(lp5025
g4
aV22
p5026
aa(lp5027
g36
ag42
ag3
aV15
p5028
aa(lp5029
g26
ag27
aa(lp5030
g197
ag3
ag10
ag3
aa(lp5031
g245
ag3
ag27
aa(lp5032
g20
ag23
ag3
aV18
p5033
aa(lp5034
g7
ag3
ag5
aa(lp5035
g4
ag12
ag29
aa(lp5036
g7
ag27
aa(lp5037
g4
ag3
aV13
p5038
ag3
aa(lp5039
a(lp5040
g4
ag3
aV13
p5041
ag3
aa(lp5042
g36
ag42
ag3
ag10
aa(lp5043
g82
ag3
ag10
ag3
aa(lp5044
g136
ag3
ag10
ag3
ag29
aa(lp5045
g7
ag27
aa(lp5046
g36
ag42
ag3
ag5
aa(lp5047
g7
ag27
aa(lp5048
g34
ag3
ag10
ag4
aa(lp5049
g82
ag40
ag3
aa(lp5050
g7
ag27
aa(lp5051
g36
ag42
ag3
ag5
aa(lp5052
g36
ag42
ag3
ag241
ag29
aa(lp5053
a(lp5054
g36
ag42
ag3
ag5
aa(lp5055
g16
ag4
aV10
p5056
aa(lp5057
g82
ag3
ag10
ag3
aa(lp5058
g7
ag3
ag10
ag3
aa(lp5059
a(lp5060
g7
ag4
aV10
p5061
ag29
aa(lp5062
g7
ag17
ag40
ag4
aa(lp5063
g7
ag17
ag40
ag4
aa(lp5064
g36
ag17
ag3
ag10
ag3
aa(lp5065
a(lp5066
g23
ag40
ag29
aa(lp5067
g245
ag12
aa(lp5068
g7
ag12
aa(lp5069
g42
ag3
ag12
aa(lp5070
g36
aV11
p5071
aa(lp5072
g20
ag8
ag4
aa(lp5073
g20
ag71
ag3
aV13
p5074
ag3
aa(lp5075
g26
ag3
ag10
aa(lp5076
g82
ag3
ag10
ag3
aa(lp5077
a(lp5078
g36
ag2
ag3
ag4
ag5
ag29
aa(lp5079
g71
ag3
ag10
ag4
aa(lp5080
g31
ag17
ag27
aa(lp5081
g36
ag2
ag40
ag29
aa(lp5082
g20
ag71
ag3
ag10
ag3
aa(lp5083
g82
ag3
ag4
ag5
aa(lp5084
g14
ag3
ag27
ag29
aa(lp5085
g31
ag3
ag12
ag29
aa(lp5086
g31
ag3
aV15
p5087
aa(lp5088
g14
ag3
ag10
ag3
aa(lp5089
g20
ag71
ag3
ag10
ag3
aa(lp5090
g245
ag3
ag4
ag10
aa(lp5091
g34
ag10
ag40
ag3
aa(lp5092
g14
ag3
ag10
ag3
aa(lp5093
g2
ag3
ag5
aa(lp5094
a(lp5095
g82
aV15
p5096
aa(lp5097
g20
ag23
ag3
ag110
aa(lp5098
g36
ag2
ag40
ag3
aa(lp5099
g16
ag10
ag12
aa(lp5100
g7
ag12
aa(lp5101
g16
ag3
ag4
aV13
p5102
aa(lp5103
g31
ag3
ag10
aa(lp5104
g2
ag8
aa(lp5105
g16
ag3
ag10
ag29
aa(lp5106
g29
ag12
ag29
aa(lp5107
g197
ag3
ag4
ag5
aa(lp5108
g23
ag3
ag4
aV21
p5109
aa(lp5110
g34
ag12
aa(lp5111
g136
ag3
ag10
ag3
aa(lp5112
g136
ag3
ag10
ag3
aa(lp5113
g14
ag3
ag27
aa(lp5114
a(lp5115
g36
ag17
ag3
ag27
aa(lp5116
g23
ag3
ag10
ag3
ag29
aa(lp5117
g26
ag3
ag10
aa(lp5118
g14
ag3
ag4
ag12
ag29
aa(lp5119
g7
ag3
ag10
ag3
aa(lp5120
g20
ag71
ag10
aV16
p5121
aa(lp5122
g36
ag2
ag40
ag29
aa(lp5123
g36
ag2
ag17
ag3
ag4
ag27
aa(lp5124
g26
ag3
aV18
p5125
ag3
aa(lp5126
g26
ag8
aa(lp5127
g71
ag3
ag10
ag4
aa(lp5128
g14
ag3
aV13
p5129
ag3
aa(lp5130
g42
ag10
ag40
aa(lp5131
g82
ag3
ag5
aa(lp5132
g29
ag3
ag5
ag29
aa(lp5133
g31
ag3
ag10
aa(lp5134
g16
ag17
ag3
ag12
aa(lp5135
g82
aV12
p5136
aa(lp5137
g34
ag3
ag10
ag4
aa(lp5138
g197
ag8
aa(lp5139
g20
ag3
ag5
aa(lp5140
g36
ag2
ag17
ag8
ag4
aa(lp5141
g31
ag17
ag12
aa(lp5142
g31
ag17
aV17
p5143
ag3
aa(lp5144
g31
ag17
ag3
ag27
aa(lp5145
g36
ag42
ag17
ag10
ag8
aa(lp5146
g82
ag10
aV14
p5147
aa(lp5148
g7
ag27
aa(lp5149
g31
ag27
aa(lp5150
g31
ag17
ag27
aa(lp5151
g31
ag27
aa(lp5152
g26
ag3
ag10
aa(lp5153
g7
aV10
p5154
aa(lp5155
g26
ag12
aa(lp5156
g20
ag71
ag825
aa(lp5157
g2
ag3
ag10
aa(lp5158
g36
ag42
ag3
ag241
aa(lp5159
g36
ag17
ag3
ag27
aa(lp5160
g42
ag3
ag110
aa(lp5161
g16
ag3
aV15
p5162
aa(lp5163
g2
ag12
aa(lp5164
g36
ag42
ag17
ag3
ag4
ag10
ag4
aa(lp5165
g26
ag3
ag8
aa(lp5166
g2
ag3
ag4
ag5
ag3
aa(lp5167
g136
ag27
ag29
aa(lp5168
g82
ag3
ag12
aa(lp5169
g20
ag71
ag10
aV21
p5170
aa(lp5171
g14
ag3
aV13
p5172
ag3
aa(lp5173
g36
ag42
ag17
ag3
ag4
ag10
aa(lp5174
a(lp5175
g2
ag3
ag4
ag10
aa(lp5176
g7
ag17
aV10
p5177
aa(lp5178
g136
ag3
ag10
ag3
aa(lp5179
g16
ag10
ag4
ag40
ag3
aa(lp5180
g23
ag3
ag110
aa(lp5181
g31
ag17
ag12
aa(lp5182
g197
ag3
ag10
ag4
aa(lp5183
g42
ag10
ag40
aa(lp5184
g197
ag3
ag10
ag4
aa(lp5185
g20
ag23
ag8
ag4
aa(lp5186
g20
ag23
ag8
ag4
aa(lp5187
g16
ag17
aV21
p5188
aa(lp5189
g36
ag17
ag4
ag8
aa(lp5190
a(lp5191
g7
ag40
ag3
aa(lp5192
g7
aV10
p5193
aa(lp5194
g36
ag42
ag3
ag5
aa(lp5195
g16
ag3
aV16
p5196
aa(lp5197
g36
ag17
ag27
aa(lp5198
g36
ag2
ag17
ag3
ag4
ag27
aa(lp5199
g36
ag17
ag27
aa(lp5200
g36
aV21
p5201
aa(lp5202
a(lp5203
g197
ag3
ag10
ag4
aa(lp5204
g36
ag17
aV22
p5205
aa(lp5206
g20
ag71
ag3
ag4
ag10
aa(lp5207
g20
ag3
ag5
aa(lp5208
g245
ag3
ag4
ag40
aa(lp5209
g31
ag10
aV10
p5210
aa(lp5211
g71
ag3
ag10
ag4
aa(lp5212
g36
ag17
ag4
ag8
aa(lp5213
g26
ag12
aa(lp5214
g36
ag42
ag3
ag5
aa(lp5215
g36
ag2
aV16
p5216
aa(lp5217
g36
ag2
ag3
ag4
ag241
aa(lp5218
g4
ag3
aV13
p5219
aa(lp5220
g7
ag3
ag5
ag3
aa(lp5221
g16
ag17
ag10
aV10
p5222
aa(lp5223
g20
ag3
ag4
ag27
aa(lp5224
g20
ag71
ag3
ag8
ag4
aa(lp5225
a(lp5226
g2
ag3
ag4
ag110
ag3
aa(lp5227
g36
ag17
ag12
aa(lp5228
g36
ag2
ag17
ag3
aV18
p5229
aa(lp5230
g20
ag23
ag3
ag10
ag4
aa(lp5231
g36
ag2
ag17
ag3
ag12
aa(lp5232
g20
ag71
ag3
ag8
ag4
aa(lp5233
g136
aV11
p5234
aa(lp5235
g4
aV12
p5236
aa(lp5237
g7
ag3
aV15
p5238
aa(lp5239
g36
ag17
ag40
ag4
aa(lp5240
g20
ag23
ag3
aV18
p5241
ag3
aa(lp5242
g36
ag3
ag12
ag29
aa(lp5243
g2
aV21
p5244
aa(lp5245
g16
ag3
aV16
p5246
aa(lp5247
g82
ag3
ag5
aa(lp5248
g36
ag17
ag4
ag40
ag3
aa(lp5249
a(lp5250
g197
ag3
ag10
ag3
aa(lp5251
g16
ag17
ag3
ag5
aa(lp5252
g16
ag17
aV21
p5253
aa(lp5254
g36
aV21
p5255
aa(lp5256
g23
ag3
ag5
ag29
aa(lp5257
g16
ag17
ag3
ag5
aa(lp5258
g31
ag17
ag3
ag27
aa(lp5259
g20
ag3
ag5
aa(lp5260
g20
ag23
ag8
ag4
aa(lp5261
g197
ag3
aV20
p5262
aa(lp5263
g16
ag10
ag12
aa(lp5264
g23
ag3
ag4
aV21
p5265
aa(lp5266
g36
ag17
ag3
ag27
aa(lp5267
g16
ag17
ag3
ag12
aa(lp5268
g16
ag17
ag3
ag12
aa(lp5269
g82
aV19
p5270
aa(lp5271
a(lp5272
g36
ag2
ag4
aV10
p5273
ag29
aa(lp5274
g31
ag17
ag12
aa(lp5275
g31
ag17
ag10
aV16
p5276
aa(lp5277
g20
ag3
ag110
aa(lp5278
g42
ag3
ag27
aa(lp5279
g26
ag3
aV18
p5280
ag3
aa(lp5281
g36
ag42
ag3
ag241
aa(lp5282
g42
ag3
aV18
p5283
aa(lp5284
g36
aV21
p5285
aa(lp5286
g26
ag3
aV18
p5287
ag3
aa(lp5288
g36
ag3
ag4
ag10
aa(lp5289
g36
ag42
ag17
ag3
ag10
aa(lp5290
g36
ag42
ag17
ag3
ag10
aa(lp5291
g31
aV22
p5292
aa(lp5293
g82
ag3
ag10
aa(lp5294
g2
ag4
ag12
aa(lp5295
g29
ag40
ag3
ag29
aa(lp5296
g16
ag8
ag4
aa(lp5297
g23
ag3
ag110
aa(lp5298
g4
ag3
aV20
p5299
aa(lp5300
g7
ag3
ag12
aa(lp5301
g82
ag3
ag241
aa(lp5302
g82
ag3
ag10
aa(lp5303
g36
ag2
ag17
ag3
ag5
ag3
aa(lp5304
g14
ag3
aV20
p5305
aa(lp5306
g14
ag3
aV20
p5307
aa(lp5308
g136
ag27
ag29
aa(lp5309
g20
ag71
ag3
ag10
ag3
aa(lp5310
g16
ag3
aV15
p5311
aa(lp5312
g14
ag3
ag10
aa(lp5313
g20
ag71
ag10
ag4
aV10
p5314
aa(lp5315
g36
ag2
ag12
aa(lp5316
g4
ag12
aa(lp5317
g31
ag3
aV14
p5318
aa(lp5319
g16
ag17
ag3
aV20
p5320
aa(lp5321
g16
ag10
ag40
aa(lp5322
g16
ag3
ag110
aa(lp5323
g16
ag3
ag110
aa(lp5324
g4
ag3
aV15
p5325
aa(lp5326
g2
ag4
ag12
aa(lp5327
g16
ag17
ag10
ag40
aa(lp5328
g29
ag40
ag4
ag29
aa(lp5329
g7
ag3
ag27
aa(lp5330
g245
ag3
ag5
aa(lp5331
g23
ag27
ag29
aa(lp5332
g16
ag3
ag10
ag4
ag29
aa(lp5333
g20
aV11
p5334
aa(lp5335
g197
ag4
ag8
aa(lp5336
g36
ag42
ag3
ag12
aa(lp5337
g20
aV17
p5338
ag29
aa(lp5339
g4
ag40
ag10
aa(lp5340
g20
ag71
ag3
ag10
ag3
aa(lp5341
g197
ag3
ag5
ag3
aa(lp5342
g36
ag42
ag17
ag3
ag241
aa(lp5343
g26
ag3
aV20
p5344
aa(lp5345
g29
ag3
ag27
ag29
aa(lp5346
g26
ag3
aV13
p5347
ag3
aa(lp5348
g4
ag10
ag40
ag29
aa(lp5349
g4
ag10
ag8
ag29
aa(lp5350
g16
ag3
aV15
p5351
aa(lp5352
a(lp5353
g14
ag3
aV20
p5354
aa(lp5355
g136
ag40
ag3
aa(lp5356
g31
ag3
ag4
ag241
ag29
aa(lp5357
g136
ag40
ag3
aa(lp5358
g42
ag3
ag8
ag4
aa(lp5359
g16
ag3
aV15
p5360
aa(lp5361
g197
ag3
ag10
ag4
aa(lp5362
g136
ag40
ag3
aa(lp5363
g20
ag23
ag3
aV16
p5364
aa(lp5365
g20
ag23
ag3
ag10
ag4
aa(lp5366
g136
ag3
aV13
p5367
ag3
aa(lp5368
g4
aV10
p5369
ag29
aa(lp5370
g4
aV10
p5371
ag29
aa(lp5372
g4
aV10
p5373
ag29
aa(lp5374
g34
ag8
ag29
aa(lp5375
g29
ag40
ag3
ag29
aa(lp5376
a(lp5377
g36
ag2
ag12
aa(lp5378
g36
ag42
ag3
ag12
aa(lp5379
a(lp5380
g20
ag40
ag4
ag29
aa(lp5381
g7
ag3
ag8
ag4
aa(lp5382
g20
ag71
ag10
aV19
p5383
ag4
aa(lp5384
g16
ag4
ag10
ag40
aa(lp5385
g4
ag3
aV13
p5386
aa(lp5387
g16
ag17
ag10
ag40
aa(lp5388
g245
ag27
aa(lp5389
g42
ag3
ag4
ag27
aa(lp5390
g2
ag3
ag10
aa(lp5391
g42
ag10
ag12
aa(lp5392
g20
ag3
aV13
p5393
aa(lp5394
g16
ag17
ag27
aa(lp5395
g20
ag8
aa(lp5396
g42
ag3
ag5
ag3
aa(lp5397
g7
ag3
aV13
p5398
aa(lp5399
g197
ag10
aV14
p5400
aa(lp5401
g29
ag3
ag5
ag3
aa(lp5402
g16
ag4
aV10
p5403
aa(lp5404
g20
ag8
aa(lp5405
g7
ag3
ag110
aa(lp5406
g14
ag3
aV18
p5407
ag4
aa(lp5408
g82
ag8
aa(lp5409
g4
ag12
ag29
aa(lp5410
g31
ag12
ag29
aa(lp5411
g4
aV11
p5412
aa(lp5413
g2
ag3
ag4
aV21
p5414
aa(lp5415
g34
ag3
ag110
aa(lp5416
g16
ag10
aV10
p5417
aa(lp5418
g14
ag3
ag10
ag3
aa(lp5419
g82
ag3
aV16
p5420
aa(lp5421
g136
ag27
ag29
aa(lp5422
g71
ag3
ag10
ag4
aa(lp5423
g31
ag10
ag40
aa(lp5424
g4
ag40
aa(lp5425
a(lp5426
g7
ag3
ag4
aV15
p5427
aa(lp5428
g82
ag12
ag29
aa(lp5429
g14
ag3
ag10
ag4
aa(lp5430
g31
ag17
ag10
ag12
aa(lp5431
g20
ag71
ag10
ag8
aa(lp5432
g16
ag3
aV16
p5433
aa(lp5434
g16
ag10
aV10
p5435
aa(lp5436
g36
ag42
ag3
ag10
aa(lp5437
g197
ag3
ag27
ag29
aa(lp5438
g82
ag27
aV10
p5439
aa(lp5440
g36
ag2
ag17
aV11
p5441
aa(lp5442
g20
ag3
ag5
ag29
aa(lp5443
g36
ag2
ag17
ag8
ag4
aa(lp5444
g42
ag3
ag12
aa(lp5445
g4
ag3
ag8
ag29
aa(lp5446
g7
ag3
ag10
aa(lp5447
g26
ag10
aV16
p5448
aa(lp5449
g4
aV15
p5450
aa(lp5451
g197
ag10
ag40
ag3
ag29
aa(lp5452
g245
ag10
aV10
p5453
ag3
aa(lp5454
g20
ag71
ag10
ag12
ag29
aa(lp5455
g16
ag10
aV10
p5456
aa(lp5457
g20
ag8
aa(lp5458
g36
ag17
ag4
ag8
aa(lp5459
g7
ag10
aV12
p5460
ag3
aa(lp5461
g31
ag10
aV10
p5462
ag3
aa(lp5463
g82
ag3
ag241
aa(lp5464
g245
ag8
ag4
aa(lp5465
g16
ag17
ag3
ag4
ag10
aa(lp5466
g42
ag10
ag8
aa(lp5467
g7
ag17
ag8
ag4
ag29
aa(lp5468
g7
ag3
ag10
ag4
aa(lp5469
g7
ag17
ag3
aV13
p5470
ag3
aa(lp5471
g36
ag2
ag3
ag10
aa(lp5472
g42
ag3
aV13
p5473
ag3
aa(lp5474
g23
aV10
p5475
ag29
aa(lp5476
g29
ag27
ag29
aa(lp5477
a(lp5478
g16
ag4
ag8
aa(lp5479
g7
ag3
aV15
p5480
aa(lp5481
a(lp5482
g16
ag17
ag3
ag27
aa(lp5483
g34
ag8
ag29
aa(lp5484
g4
aV10
p5485
ag3
aa(lp5486
g31
ag10
ag12
aa(lp5487
g29
ag3
ag5
ag3
aa(lp5488
g197
ag3
ag27
ag29
aa(lp5489
g36
ag2
ag17
ag8
ag4
aa(lp5490
g20
ag23
ag12
aa(lp5491
g20
aV15
p5492
aa(lp5493
g197
ag3
ag27
aa(lp5494
g20
ag23
ag3
ag4
ag5
aa(lp5495
g136
ag3
ag27
aa(lp5496
g36
ag3
ag27
aa(lp5497
g36
ag3
ag27
aa(lp5498
g20
aV15
p5499
aa(lp5500
g20
ag71
ag3
aV14
p5501
aa(lp5502
g20
ag23
ag3
aV13
p5503
ag3
aa(lp5504
g42
ag10
ag4
aV21
p5505
aa(lp5506
g16
ag17
ag27
aa(lp5507
g7
ag8
aa(lp5508
g4
ag40
aa(lp5509
g42
ag3
ag12
aa(lp5510
g42
ag3
ag12
aa(lp5511
g16
ag17
ag40
ag3
aa(lp5512
g51
ag3
ag8
ag4
aa(lp5513
g16
ag10
aV10
p5514
aa(lp5515
g16
ag17
ag27
aa(lp5516
g7
aV10
p5517
aa(lp5518
g36
ag42
ag17
ag3
ag8
aa(lp5519
g16
ag4
aV21
p5520
aa(lp5521
g36
aV14
p5522
aa(lp5523
g7
ag3
ag27
aa(lp5524
g16
ag10
aV10
p5525
aa(lp5526
g31
ag10
ag8
aa(lp5527
g82
ag3
ag27
aa(lp5528
g16
ag3
ag8
ag4
aa(lp5529
g16
ag17
ag3
ag10
aa(lp5530
g20
ag23
ag8
ag4
aa(lp5531
g16
ag17
ag12
aa(lp5532
g20
aV11
p5533
aa(lp5534
g7
ag3
ag8
ag4
aa(lp5535
g16
aV15
p5536
aa(lp5537
g136
aV10
p5538
aa(lp5539
a(lp5540
g36
ag42
ag3
ag10
aa(lp5541
g20
ag71
ag3
ag5
aa(lp5542
g23
ag40
ag4
aa(lp5543
g197
ag3
ag8
aa(lp5544
g26
ag3
aV20
p5545
aa(lp5546
g16
ag10
ag12
aa(lp5547
g16
ag17
ag3
ag10
ag3
aa(lp5548
g197
ag3
aV13
p5549
aa(lp5550
g20
ag23
ag3
ag10
ag4
aa(lp5551
g42
ag3
ag4
ag10
aa(lp5552
g4
ag3
aV20
p5553
aa(lp5554
g20
ag23
ag3
aV13
p5555
aa(lp5556
g16
ag27
aa(lp5557
g14
ag3
aV13
p5558
ag3
aa(lp5559
a(lp5560
g31
ag17
aV17
p5561
ag3
aa(lp5562
g7
ag3
ag110
ag3
aa(lp5563
a(lp5564
g2
ag3
ag12
aa(lp5565
g7
ag3
ag4
aV13
p5566
aa(lp5567
g4
ag3
ag27
aa(lp5568
g36
ag2
ag3
ag10
aa(lp5569
g7
ag17
ag12
aa(lp5570
g36
ag42
ag3
ag8
aa(lp5571
g36
ag3
ag4
ag10
ag3
aa(lp5572
g2
ag3
ag10
aa(lp5573
g16
ag8
aa(lp5574
g4
ag40
aa(lp5575
g34
ag27
aa(lp5576
g34
ag12
aa(lp5577
g20
aV15
p5578
aa(lp5579
g20
aV17
p5580
ag3
aa(lp5581
g197
ag3
ag10
aa(lp5582
g16
ag3
ag4
aV21
p5583
aa(lp5584
g7
ag3
ag4
aV13
p5585
ag3
aa(lp5586
g14
ag27
aa(lp5587
g4
ag3
aV13
p5588
aa(lp5589
g16
ag10
ag40
ag3
aa(lp5590
g20
ag3
ag5
aa(lp5591
g7
ag17
ag40
ag3
ag29
aa(lp5592
g7
ag17
ag3
aV19
p5593
ag29
aa(lp5594
g7
ag3
aV19
p5595
aa(lp5596
g2
ag3
ag10
aa(lp5597
g2
ag3
ag10
aa(lp5598
g136
ag3
ag10
ag3
ag29
aa(lp5599
g26
ag10
aV10
p5600
aa(lp5601
g34
ag3
ag5
aa(lp5602
g36
ag2
ag17
ag3
ag10
ag3
aa(lp5603
g14
ag10
aV17
p5604
ag3
aa(lp5605
g16
ag17
ag3
ag10
ag3
aa(lp5606
g36
ag2
ag8
ag4
ag29
aa(lp5607
g7
ag27
aa(lp5608
g20
ag124
aa(lp5609
g7
ag17
ag3
ag8
ag4
aa(lp5610
a(lp5611
g26
ag3
ag10
ag3
aa(lp5612
g82
ag3
ag4
ag5
aa(lp5613
g14
ag10
aV17
p5614
ag3
aa(lp5615
g16
ag4
ag8
ag4
aa(lp5616
g29
ag40
ag29
aa(lp5617
g26
ag10
ag40
aa(lp5618
g51
ag4
ag40
ag29
aa(lp5619
g36
ag42
ag17
ag3
ag10
ag3
aa(lp5620
g29
ag27
ag29
aa(lp5621
g29
ag3
ag5
ag3
aa(lp5622
g136
ag3
ag241
aa(lp5623
g36
ag2
ag381
aa(lp5624
g2
ag8
ag4
aa(lp5625
g36
ag2
ag3
ag10
ag29
aa(lp5626
g34
ag12
aa(lp5627
g20
aV11
p5628
aa(lp5629
a(lp5630
g4
ag124
aa(lp5631
g51
ag4
ag40
aa(lp5632
g7
ag3
ag10
aa(lp5633
g16
ag10
aV14
p5634
aa(lp5635
g29
ag3
ag5
ag29
aa(lp5636
g31
ag17
ag3
aV19
p5637
aa(lp5638
a(lp5639
g29
ag40
ag29
aa(lp5640
g2
ag3
ag10
ag3
aa(lp5641
g36
ag2
ag17
ag3
ag4
ag10
ag3
aa(lp5642
g20
ag23
ag3
ag4
ag5
aa(lp5643
g36
ag17
ag4
ag8
aa(lp5644
g197
ag10
aV14
p5645
aa(lp5646
g7
ag3
aV15
p5647
aa(lp5648
g2
ag3
ag10
aa(lp5649
g36
ag42
ag3
ag4
aV21
p5650
aa(lp5651
g136
ag40
ag3
aa(lp5652
g71
ag3
aV20
p5653
aa(lp5654
g31
ag17
ag3
ag12
aa(lp5655
g7
ag40
ag3
aa(lp5656
g7
aV21
p5657
aa(lp5658
g16
ag10
aV14
p5659
aa(lp5660
g20
aV12
p5661
ag3
aa(lp5662
g26
ag40
aa(lp5663
g16
ag3
ag10
ag3
aa(lp5664
g197
ag3
ag5
aa(lp5665
g36
ag2
aV24
p5666
aa(lp5667
g16
ag17
ag10
ag40
ag4
aa(lp5668
g29
ag3
ag12
ag29
aa(lp5669
g20
ag23
ag40
aa(lp5670
g20
aV11
p5671
aa(lp5672
g36
ag2
ag17
aV21
p5673
aa(lp5674
g4
ag3
ag27
aa(lp5675
g7
ag12
aa(lp5676
g36
ag2
ag17
ag3
ag10
ag3
aa(lp5677
g26
ag10
ag12
aa(lp5678
g7
ag10
aV12
p5679
ag3
aa(lp5680
g20
aV11
p5681
aa(lp5682
g7
ag17
ag3
aV19
p5683
ag29
aa(lp5684
g42
ag3
aV11
p5685
aa(lp5686
g7
ag3
ag8
ag4
aa(lp5687
g7
ag12
aa(lp5688
g7
ag12
aa(lp5689
g26
aV21
p5690
aa(lp5691
g16
ag3
ag27
ag29
aa(lp5692
g36
ag2
ag40
ag4
aa(lp5693
g26
aV19
p5694
aa(lp5695
g14
ag27
aa(lp5696
g29
ag3
ag5
ag3
aa(lp5697
g31
ag10
ag12
aa(lp5698
g245
ag3
ag4
ag10
aa(lp5699
g197
ag3
aV13
p5700
aa(lp5701
g16
ag40
ag4
aa(lp5702
g7
ag3
aV20
p5703
aa(lp5704
g42
ag3
ag4
ag27
aa(lp5705
g26
aV17
p5706
aa(lp5707
g29
ag3
ag10
ag3
ag29
aa(lp5708
g16
ag3
aV15
p5709
aa(lp5710
g36
ag17
ag4
ag8
aa(lp5711
g136
ag3
ag5
aa(lp5712
g34
ag3
ag10
ag4
aa(lp5713
g16
ag17
ag10
aV10
p5714
aa(lp5715
g7
ag8
ag4
aa(lp5716
g20
ag3
ag12
aa(lp5717
g7
ag17
ag40
ag3
ag29
aa(lp5718
g7
ag17
ag40
ag3
ag29
aa(lp5719
g36
ag27
aa(lp5720
g16
ag3
ag10
ag4
aa(lp5721
g36
ag42
ag17
ag3
ag8
aa(lp5722
g7
ag40
ag4
aa(lp5723
g197
ag3
ag8
aa(lp5724
g20
ag23
ag40
aa(lp5725
g71
ag3
aV20
p5726
aa(lp5727
g4
ag40
ag3
ag29
aa(lp5728
g82
ag3
ag10
aa(lp5729
g7
ag3
aV13
p5730
ag3
aa(lp5731
g20
ag3
aV18
p5732
aa(lp5733
g23
aV17
p5734
ag4
aa(lp5735
g20
ag23
ag3
ag8
aa(lp5736
g20
aV11
p5737
aa(lp5738
g36
ag2
ag381
aa(lp5739
g82
ag4
aV15
p5740
aa(lp5741
g36
ag42
ag17
ag3
ag5
aa(lp5742
g51
ag4
aV10
p5743
ag29
aa(lp5744
g82
ag3
ag10
ag3
aa(lp5745
g29
ag3
ag27
ag29
aa(lp5746
g36
ag42
ag3
ag10
ag3
aa(lp5747
g82
ag40
ag29
aa(lp5748
g34
ag3
ag40
ag3
aa(lp5749
g20
ag4
ag27
aa(lp5750
g4
ag40
ag3
aa(lp5751
g7
ag3
aV20
p5752
aa(lp5753
g20
aV11
p5754
aa(lp5755
g36
ag8
aa(lp5756
g20
ag27
aa(lp5757
g31
ag17
ag10
ag12
aa(lp5758
g4
aV17
p5759
aa(lp5760
g20
aV11
p5761
aa(lp5762
g14
ag27
aa(lp5763
g136
aV16
p5764
ag29
aa(lp5765
g2
ag3
ag5
aa(lp5766
g136
aV10
p5767
aa(lp5768
g31
aV20
p5769
aa(lp5770
g14
ag3
aV15
p5771
aa(lp5772
g7
ag3
aV15
p5773
aa(lp5774
g7
ag40
ag3
aa(lp5775
g29
ag12
ag29
aa(lp5776
a(lp5777
g71
ag10
ag4
aV10
p5778
aa(lp5779
g71
ag10
ag4
aV10
p5780
aa(lp5781
g36
aV21
p5782
aa(lp5783
g20
ag71
ag10
ag12
aa(lp5784
g7
ag3
ag5
aa(lp5785
g7
ag40
ag3
aa(lp5786
g29
ag3
ag8
ag29
aa(lp5787
g29
ag3
ag5
ag29
aa(lp5788
g20
ag71
ag10
ag12
aa(lp5789
g29
ag3
ag5
ag29
aa(lp5790
g36
ag42
ag3
ag12
aa(lp5791
g36
ag3
ag5
ag3
aa(lp5792
g20
ag23
ag3
aV13
p5793
aa(lp5794
g23
ag8
ag4
aa(lp5795
g23
ag8
ag4
aa(lp5796
g14
ag3
ag10
ag3
aa(lp5797
g23
ag8
ag4
aa(lp5798
g34
ag8
ag29
aa(lp5799
g36
ag4
aV10
p5800
ag29
aa(lp5801
g16
aV10
p5802
aa(lp5803
g36
ag17
aV14
p5804
aa(lp5805
g136
ag124
aa(lp5806
g36
ag2
ag17
ag8
ag4
aa(lp5807
g14
ag3
aV16
p5808
aa(lp5809
g20
ag71
ag3
ag4
aV21
p5810
aa(lp5811
g36
ag42
ag17
ag3
ag4
ag10
aa(lp5812
g31
ag3
ag27
aa(lp5813
g7
ag8
ag4
aa(lp5814
a(lp5815
g16
ag17
ag10
ag40
aa(lp5816
g16
ag17
ag27
aa(lp5817
g16
aV21
p5818
aa(lp5819
g20
ag71
ag10
aV21
p5820
aa(lp5821
g82
ag3
aV18
p5822
ag3
aa(lp5823
g136
aV10
p5824
aa(lp5825
g20
ag71
ag3
ag110
aa(lp5826
g51
ag27
ag29
aa(lp5827
g42
ag3
ag10
aa(lp5828
g42
ag3
ag27
aa(lp5829
g36
ag2
ag3
ag241
ag29
aa(lp5830
g2
ag3
ag4
ag10
aa(lp5831
g36
ag42
ag3
ag12
aa(lp5832
g36
ag4
aV12
p5833
aa(lp5834
g16
ag17
ag3
ag5
aa(lp5835
g14
ag3
aV13
p5836
ag3
aa(lp5837
g4
aV11
p5838
aa(lp5839
g7
ag4
ag40
aa(lp5840
g20
ag71
ag3
ag27
aa(lp5841
g7
ag3
ag110
aa(lp5842
g7
ag4
ag40
aa(lp5843
g29
ag3
ag27
ag29
aa(lp5844
g7
ag3
ag110
aa(lp5845
g42
ag3
ag27
aa(lp5846
g29
ag3
ag5
ag3
aa(lp5847
g2
ag3
ag4
ag8
aa(lp5848
g2
aV17
p5849
ag4
aa(lp5850
g23
ag8
ag4
aa(lp5851
g7
ag3
ag110
aa(lp5852
g26
ag40
aa(lp5853
g2
ag8
ag4
aa(lp5854
g20
ag23
ag8
ag4
aa(lp5855
g16
ag3
ag4
aV21
p5856
aa(lp5857
g136
ag3
aV16
p5858
aa(lp5859
g136
ag3
aV20
p5860
aa(lp5861
g4
aV11
p5862
aa(lp5863
g20
ag71
ag3
ag8
ag4
aa(lp5864
g20
ag23
ag3
ag10
ag4
aa(lp5865
g29
aV10
p5866
ag29
aa(lp5867
g36
ag17
ag12
aa(lp5868
g36
ag17
ag12
aa(lp5869
g7
ag3
aV13
p5870
ag3
aa(lp5871
g16
ag17
ag3
ag10
aa(lp5872
g26
ag3
ag12
aa(lp5873
g20
ag3
aV20
p5874
aa(lp5875
g2
ag8
ag4
aa(lp5876
g31
ag17
ag3
ag12
ag29
aa(lp5877
g16
ag17
ag3
ag5
aa(lp5878
g7
ag3
ag110
aa(lp5879
g7
ag3
ag110
aa(lp5880
g51
ag27
ag29
aa(lp5881
g36
ag2
ag17
aV10
p5882
aa(lp5883
g36
ag17
ag3
ag110
aa(lp5884
g42
ag3
ag10
aa(lp5885
g42
ag10
ag40
aa(lp5886
g245
ag3
ag27
aa(lp5887
g42
ag10
ag40
aa(lp5888
g16
ag17
ag10
aV19
p5889
aa(lp5890
g197
ag3
ag10
ag3
aa(lp5891
g245
ag12
aa(lp5892
a(lp5893
g71
ag3
ag8
aa(lp5894
g36
ag12
aa(lp5895
g36
ag42
ag3
aV14
p5896
aa(lp5897
g16
ag12
ag29
aa(lp5898
g42
ag3
ag5
aa(lp5899
g42
ag3
ag4
ag10
ag4
aa(lp5900
g36
aV10
p5901
aa(lp5902
g7
ag17
ag3
ag8
ag4
aa(lp5903
g36
ag2
ag17
ag4
ag40
ag4
aa(lp5904
g31
ag17
ag3
aV18
p5905
aa(lp5906
g36
ag4
ag27
aa(lp5907
g42
ag3
ag5
aa(lp5908
g31
ag17
ag3
aV18
p5909
aa(lp5910
g31
ag17
ag3
aV18
p5911
aa(lp5912
g20
ag71
ag3
aV13
p5913
ag3
aa(lp5914
g42
ag3
ag5
aa(lp5915
g20
ag71
ag3
aV13
p5916
ag3
aa(lp5917
g36
ag40
aa(lp5918
g26
ag3
ag27
aa(lp5919
g42
ag3
ag5
aa(lp5920
g20
ag23
aV16
p5921
aa(lp5922
g71
ag3
ag8
aa(lp5923
g245
ag4
ag40
aa(lp5924
g36
ag2
ag17
ag4
ag40
ag4
aa(lp5925
g42
ag3
ag10
ag3
aa(lp5926
g42
ag3
ag5
aa(lp5927
g16
ag10
ag40
ag3
aa(lp5928
g16
ag10
ag40
ag3
aa(lp5929
g16
ag10
aV22
p5930
aa(lp5931
g7
ag27
aa(lp5932
g42
ag10
ag8
aa(lp5933
g36
ag3
aV13
p5934
aa(lp5935
g16
ag17
aV10
p5936
aa(lp5937
a(lp5938
g26
ag3
ag5
aa(lp5939
g16
ag12
aa(lp5940
g20
ag23
ag3
ag10
aa(lp5941
a(lp5942
g36
ag2
ag17
aV14
p5943
aa(lp5944
g42
ag10
ag8
aa(lp5945
g20
ag23
ag3
ag10
aa(lp5946
g7
ag3
ag10
aa(lp5947
g26
ag3
ag10
aa(lp5948
g26
ag3
ag10
aa(lp5949
g197
ag3
aV16
p5950
ag29
aa(lp5951
g36
ag2
ag17
aV14
p5952
aa(lp5953
g36
ag2
ag17
ag40
ag3
aa(lp5954
g51
ag4
ag27
aa(lp5955
g82
ag3
ag10
aa(lp5956
g136
ag12
aa(lp5957
g20
ag71
ag10
aV12
p5958
ag3
aa(lp5959
g51
ag4
ag27
aa(lp5960
g16
ag3
ag110
aa(lp5961
g31
ag10
ag8
aa(lp5962
g197
ag3
ag8
ag4
aa(lp5963
g31
aV11
p5964
aa(lp5965
g16
ag10
ag40
aa(lp5966
g20
ag71
ag3
ag4
ag10
ag4
aa(lp5967
g26
aV12
p5968
aa(lp5969
g29
ag3
ag8
ag29
aa(lp5970
a(lp5971
g16
aV19
p5972
aa(lp5973
g4
ag3
ag110
aa(lp5974
a(lp5975
g197
ag3
ag12
aa(lp5976
g136
ag3
ag10
aa(lp5977
g136
aV10
p5978
ag29
aa(lp5979
a(lp5980
g20
ag71
ag3
ag4
ag27
aa(lp5981
g197
ag3
aV16
p5982
ag29
aa(lp5983
g20
ag23
ag3
ag8
aa(lp5984
a(lp5985
a(lp5986
g7
ag17
ag3
aV13
p5987
ag3
aa(lp5988
g20
aV20
p5989
aa(lp5990
g16
ag12
ag29
aa(lp5991
g7
ag8
aa(lp5992
g7
aV10
p5993
aa(lp5994
g31
aV10
p5995
aa(lp5996
g7
aV14
p5997
aa(lp5998
g23
ag3
ag27
ag29
aa(lp5999
g31
ag17
ag3
ag10
aa(lp6000
g136
aV12
p6001
aa(lp6002
g36
ag42
ag17
ag3
ag5
aa(lp6003
g26
ag3
ag12
aa(lp6004
g23
aV10
p6005
ag29
aa(lp6006
g26
ag3
aV11
p6007
aa(lp6008
g136
ag3
ag8
aa(lp6009
g7
aV10
p6010
aa(lp6011
g26
aV11
p6012
aa(lp6013
g26
aV11
p6014
aa(lp6015
g31
ag17
ag3
ag8
aa(lp6016
g36
ag2
ag40
ag4
aa(lp6017
g36
ag17
ag3
ag10
ag3
aa(lp6018
g42
ag3
aV19
p6019
aa(lp6020
g82
ag3
ag4
ag10
aa(lp6021
g26
ag3
ag10
aa(lp6022
g136
ag3
ag5
aa(lp6023
g136
ag8
aa(lp6024
g136
aV17
p6025
aa(lp6026
g136
aV17
p6027
aa(lp6028
a(lp6029
g7
ag3
ag27
aa(lp6030
g36
ag3
aV15
p6031
aa(lp6032
g20
ag23
ag3
ag10
aa(lp6033
g36
ag3
aV13
p6034
aa(lp6035
g20
aV19
p6036
aa(lp6037
g20
ag23
ag3
aV18
p6038
aa(lp6039
g4
ag3
ag12
aa(lp6040
g16
ag12
aa(lp6041
g197
ag10
ag8
ag4
aa(lp6042
g20
ag4
aV21
p6043
aa(lp6044
g16
ag3
ag110
aa(lp6045
g197
ag10
ag8
ag4
aa(lp6046
g42
ag3
ag4
ag5
aa(lp6047
g31
ag17
ag3
ag8
aa(lp6048
g20
ag23
ag3
ag10
aa(lp6049
g16
ag3
ag10
ag4
aa(lp6050
g82
ag3
ag12
aa(lp6051
g14
ag3
ag241
aa(lp6052
g36
ag17
aV16
p6053
ag29
aa(lp6054
g31
ag17
aV10
p6055
aa(lp6056
a(lp6057
g51
ag4
aV15
p6058
aa(lp6059
g82
ag3
ag12
aa(lp6060
g197
ag3
ag12
ag29
aa(lp6061
g36
ag3
aV15
p6062
aa(lp6063
g36
ag17
aV12
p6064
ag3
aa(lp6065
g7
ag3
aV18
p6066
aa(lp6067
g42
ag10
ag40
aa(lp6068
g23
aV10
p6069
ag29
aa(lp6070
g16
aV19
p6071
aa(lp6072
g42
ag3
ag4
aV21
p6073
aa(lp6074
a(lp6075
g197
ag3
aV16
p6076
aa(lp6077
g20
ag3
ag241
aa(lp6078
g16
ag12
aa(lp6079
g82
ag3
ag27
aa(lp6080
g36
ag2
aV15
p6081
aa(lp6082
g7
ag3
aV18
p6083
ag3
aa(lp6084
g7
ag3
aV15
p6085
aa(lp6086
g36
ag17
ag4
ag8
aa(lp6087
g51
ag10
aV11
p6088
aa(lp6089
g16
ag3
ag12
aa(lp6090
g36
ag42
ag17
ag10
ag12
aa(lp6091
g31
ag10
aV12
p6092
aa(lp6093
g197
ag10
ag12
aa(lp6094
a(lp6095
g136
ag3
aV18
p6096
ag3
aa(lp6097
g20
ag4
ag12
aa(lp6098
g7
aV14
p6099
aa(lp6100
g20
ag4
aV10
p6101
ag29
aa(lp6102
g34
ag3
aV18
p6103
aa(lp6104
g20
ag40
aa(lp6105
g4
ag3
ag27
aa(lp6106
g20
ag4
aV10
p6107
ag29
aa(lp6108
g36
ag17
ag4
aV10
p6109
ag29
aa(lp6110
g36
ag2
ag17
ag3
ag4
ag27
aa(lp6111
g31
ag3
ag10
aa(lp6112
g31
ag17
ag3
ag241
aa(lp6113
g16
ag3
aV13
p6114
ag3
aa(lp6115
g71
ag3
ag241
aa(lp6116
g20
ag3
ag241
aa(lp6117
g20
ag4
ag12
aa(lp6118
g20
ag4
ag12
aa(lp6119
g20
ag23
ag3
aV21
p6120
aa(lp6121
g34
ag12
ag29
aa(lp6122
g20
aV19
p6123
aa(lp6124
g29
ag3
ag5
ag3
aa(lp6125
g31
ag3
ag4
ag241
ag29
aa(lp6126
g7
ag3
ag10
aa(lp6127
g245
ag4
ag12
aa(lp6128
g36
ag17
ag3
ag12
aa(lp6129
g26
ag10
aV10
p6130
ag29
aa(lp6131
g20
ag3
aV19
p6132
aa(lp6133
g31
ag17
aV10
p6134
ag29
aa(lp6135
g36
ag2
ag17
ag3
ag12
ag29
aa(lp6136
a(lp6137
g26
ag3
ag12
aa(lp6138
g36
ag17
ag3
aV16
p6139
aa(lp6140
g36
ag17
ag3
ag10
ag3
aa(lp6141
g36
ag17
ag3
ag10
aa(lp6142
g4
ag10
ag40
aa(lp6143
g197
ag3
aV21
p6144
aa(lp6145
g26
ag3
ag10
aa(lp6146
g20
ag71
ag3
ag110
aa(lp6147
g7
ag17
ag12
aa(lp6148
g7
aV12
p6149
aa(lp6150
g71
ag10
ag40
aa(lp6151
g26
aV11
p6152
aa(lp6153
g26
aV14
p6154
aa(lp6155
g16
ag3
ag110
aa(lp6156
g26
ag3
ag5
aa(lp6157
g36
ag2
ag3
ag4
ag27
aa(lp6158
g36
ag17
ag4
aV10
p6159
ag29
aa(lp6160
g82
ag10
aV10
p6161
ag3
aa(lp6162
a(lp6163
g82
ag4
ag27
aa(lp6164
g29
ag3
ag10
ag3
ag29
aa(lp6165
g7
ag3
ag5
ag3
aa(lp6166
g26
aV10
p6167
aa(lp6168
g16
ag17
ag3
ag10
ag4
aa(lp6169
g16
ag10
aV10
p6170
ag29
aa(lp6171
g16
ag17
ag10
ag12
aa(lp6172
g82
ag3
ag27
aa(lp6173
g16
ag17
ag3
ag241
aa(lp6174
g36
ag8
aa(lp6175
g136
ag40
ag3
aa(lp6176
g197
aV21
p6177
aa(lp6178
g16
ag17
ag3
ag4
aV21
p6179
aa(lp6180
g16
ag17
ag10
ag12
ag29
aa(lp6181
g136
ag3
aV11
p6182
aa(lp6183
g197
ag3
ag4
ag12
ag29
aa(lp6184
g14
aV20
p6185
aa(lp6186
g34
ag3
ag110
aa(lp6187
g14
aV20
p6188
aa(lp6189
g82
ag12
aa(lp6190
g2
ag4
ag40
ag3
aa(lp6191
g14
ag3
aV18
p6192
ag4
aa(lp6193
g26
aV11
p6194
aa(lp6195
g20
ag23
ag40
aa(lp6196
g29
ag3
ag5
ag3
aa(lp6197
g26
aV11
p6198
aa(lp6199
g20
ag3
aV15
p6200
aa(lp6201
g82
ag825
aa(lp6202
g23
ag12
ag29
aa(lp6203
g51
ag40
ag4
ag29
aa(lp6204
g29
ag40
ag3
ag29
aa(lp6205
g36
ag2
ag4
aV21
p6206
aa(lp6207
g20
ag71
ag3
aV20
p6208
aa(lp6209
g20
ag71
ag10
aV10
p6210
ag3
aa(lp6211
g42
ag10
ag40
ag3
aa(lp6212
g82
ag3
ag10
ag3
aa(lp6213
g7
ag8
aa(lp6214
g36
ag2
ag40
ag4
ag29
aa(lp6215
g197
ag3
ag27
ag29
aa(lp6216
g29
ag3
ag27
ag29
aa(lp6217
g36
ag42
ag17
ag3
ag10
ag4
aa(lp6218
a(lp6219
g36
ag42
ag17
ag10
ag4
ag12
aa(lp6220
g71
ag3
aV20
p6221
aa(lp6222
g82
ag27
aV10
p6223
aa(lp6224
g16
ag10
aV12
p6225
ag3
aa(lp6226
a(lp6227
g16
ag17
ag3
ag8
ag4
aa(lp6228
a(lp6229
g20
ag3
ag10
aa(lp6230
g16
ag10
ag40
ag3
aa(lp6231
g34
aV11
p6232
aa(lp6233
g7
ag17
ag3
aV15
p6234
aa(lp6235
g26
ag3
aV13
p6236
aa(lp6237
g14
ag3
ag110
aa(lp6238
g7
ag17
ag4
ag27
aa(lp6239
g197
aV15
p6240
aa(lp6241
g16
ag17
ag3
ag5
aa(lp6242
g2
ag3
ag27
aa(lp6243
g14
ag3
aV16
p6244
aa(lp6245
g2
ag4
ag27
aa(lp6246
g20
ag71
ag3
ag12
aa(lp6247
g82
ag12
aa(lp6248
g136
ag12
aa(lp6249
g16
ag10
aV10
p6250
ag29
aa(lp6251
g36
ag2
ag40
ag4
ag29
aa(lp6252
g16
ag3
ag12
aa(lp6253
g7
ag3
ag5
aa(lp6254
g20
ag71
ag3
ag5
aa(lp6255
g197
ag10
aV14
p6256
aa(lp6257
g197
ag3
ag8
ag4
aa(lp6258
g51
ag27
ag29
aa(lp6259
g7
ag27
aa(lp6260
g26
ag27
ag29
aa(lp6261
g16
aV19
p6262
ag29
aa(lp6263
g29
ag3
ag5
ag3
aa(lp6264
g20
ag23
ag3
ag110
aa(lp6265
g2
ag40
ag3
aa(lp6266
g4
aV11
p6267
aa(lp6268
g42
ag3
ag4
ag5
ag29
aa(lp6269
g16
ag17
ag3
aV19
p6270
ag29
aa(lp6271
g16
ag17
ag10
aV17
p6272
ag3
aa(lp6273
g29
ag3
ag5
ag3
aa(lp6274
g36
ag3
ag5
ag3
aa(lp6275
g36
ag2
ag3
ag5
aa(lp6276
g51
ag12
aa(lp6277
g197
aV21
p6278
aa(lp6279
g42
ag3
ag4
ag12
aa(lp6280
g36
ag42
ag17
ag3
ag10
ag3
aa(lp6281
g42
ag10
ag8
ag4
aa(lp6282
g26
aV12
p6283
aa(lp6284
g82
ag10
aV16
p6285
aa(lp6286
g26
aV10
p6287
aa(lp6288
g34
ag4
ag40
ag3
aa(lp6289
g42
ag3
ag4
ag12
aa(lp6290
g36
ag2
ag17
ag40
ag3
aa(lp6291
g82
ag3
ag8
ag4
ag29
aa(lp6292
g82
ag40
ag29
aa(lp6293
g197
ag3
ag5
ag29
aa(lp6294
g7
ag3
aV15
p6295
aa(lp6296
g245
ag3
ag8
ag4
aa(lp6297
g16
ag17
ag3
ag8
ag4
aa(lp6298
g31
aV10
p6299
aa(lp6300
g7
ag17
aV17
p6301
ag4
aa(lp6302
g42
ag3
aV11
p6303
aa(lp6304
g7
ag3
ag5
ag3
aa(lp6305
g16
ag10
aV10
p6306
ag29
aa(lp6307
g36
ag2
ag17
ag40
aa(lp6308
g2
ag8
aa(lp6309
g82
ag3
ag10
ag29
aa(lp6310
g245
ag3
ag5
ag3
aa(lp6311
g82
ag3
aV15
p6312
aa(lp6313
g7
ag4
aV15
p6314
aa(lp6315
g16
aV19
p6316
aa(lp6317
g7
ag40
ag4
aa(lp6318
g82
ag3
ag27
aa(lp6319
g26
ag8
aa(lp6320
g16
ag3
ag27
ag29
aa(lp6321
g2
ag3
ag4
aV23
p6322
aa(lp6323
g29
ag12
ag29
aa(lp6324
g136
aV22
p6325
aa(lp6326
g4
ag40
ag3
aa(lp6327
g23
ag3
ag5
ag29
aa(lp6328
g197
ag3
ag4
ag5
ag29
aa(lp6329
g136
ag10
ag8
ag29
aa(lp6330
g20
ag23
ag27
aa(lp6331
g16
aV11
p6332
aa(lp6333
a(lp6334
g36
ag42
ag17
ag3
ag4
ag10
ag4
aa(lp6335
g7
ag3
ag10
aa(lp6336
g2
ag40
ag3
aa(lp6337
g23
ag40
ag4
aa(lp6338
g16
ag17
ag12
aa(lp6339
g16
ag17
ag3
ag10
aa(lp6340
g16
ag17
ag4
aV12
p6341
ag3
aa(lp6342
g26
aV10
p6343
ag3
aa(lp6344
g20
ag71
ag3
ag10
aa(lp6345
g197
aV15
p6346
aa(lp6347
g29
ag3
ag8
ag29
aa(lp6348
g16
ag10
aV10
p6349
ag29
aa(lp6350
g29
ag3
ag5
ag29
aa(lp6351
g4
ag10
aV21
p6352
aa(lp6353
a(lp6354
g7
ag17
aV10
p6355
aa(lp6356
g51
ag4
ag40
ag29
aa(lp6357
g36
ag3
ag241
aa(lp6358
g136
aV11
p6359
aa(lp6360
g7
ag4
aV10
p6361
ag3
aa(lp6362
g20
ag23
ag3
ag4
ag5
aa(lp6363
g16
ag17
ag3
aV16
p6364
aa(lp6365
g7
ag4
ag40
ag3
aa(lp6366
g136
ag40
aa(lp6367
g42
ag10
aV16
p6368
aa(lp6369
g36
ag42
ag10
aV12
p6370
ag3
aa(lp6371
g51
ag3
ag8
ag4
aa(lp6372
g20
ag23
ag3
ag10
aa(lp6373
g42
ag3
aV16
p6374
aa(lp6375
g136
aV10
p6376
aa(lp6377
g36
ag2
ag17
ag3
ag10
ag3
aa(lp6378
g31
ag17
aV10
p6379
aa(lp6380
g82
ag3
aV15
p6381
aa(lp6382
g197
ag3
ag10
ag3
ag29
aa(lp6383
g34
aV11
p6384
aa(lp6385
g36
ag42
ag17
ag10
ag12
aa(lp6386
g31
ag17
aV10
p6387
aa(lp6388
g2
ag3
ag8
aa(lp6389
g2
ag3
ag27
aa(lp6390
g20
ag3
ag10
ag3
aa(lp6391
g31
ag17
aV10
p6392
aa(lp6393
g2
ag3
ag110
aa(lp6394
g136
ag3
aV23
p6395
aa(lp6396
g7
ag27
aa(lp6397
g16
ag17
ag3
aV20
p6398
aa(lp6399
g51
ag4
ag40
aa(lp6400
g34
aV21
p6401
aa(lp6402
g82
ag3
ag27
aa(lp6403
g7
ag4
aV15
p6404
aa(lp6405
g26
ag10
ag12
aa(lp6406
g16
ag17
ag3
aV10
p6407
aa(lp6408
g14
aV16
p6409
ag29
aa(lp6410
g82
ag3
ag4
ag5
aa(lp6411
g20
ag23
ag3
ag10
ag3
aa(lp6412
g36
ag3
ag10
ag3
aa(lp6413
g197
ag3
ag5
aa(lp6414
g20
ag71
ag3
ag4
aV16
p6415
aa(lp6416
g36
ag8
aa(lp6417
g42
ag3
ag10
aa(lp6418
g23
ag3
aV14
p6419
aa(lp6420
a(lp6421
a(lp6422
a(lp6423
g36
ag42
ag3
ag10
ag3
aa(lp6424
g16
ag10
ag40
ag3
aa(lp6425
g42
ag3
ag5
ag29
aa(lp6426
g14
ag3
aV18
p6427
aa(lp6428
g16
ag3
ag5
aa(lp6429
g136
ag40
aa(lp6430
g51
aV10
p6431
ag29
aa(lp6432
g7
ag3
ag5
ag3
aa(lp6433
g7
ag3
ag5
ag3
aa(lp6434
g7
ag8
ag4
aa(lp6435
g26
ag3
ag27
aa(lp6436
g20
ag71
ag3
ag5
aa(lp6437
g36
ag2
ag4
ag12
ag29
aa(lp6438
g7
ag17
ag3
aV15
p6439
aa(lp6440
g51
aV10
p6441
ag29
aa(lp6442
g29
aV10
p6443
ag29
aa(lp6444
g71
ag3
ag5
ag29
aa(lp6445
g71
ag3
ag5
ag29
aa(lp6446
g197
ag3
ag12
ag29
aa(lp6447
g82
ag3
ag10
aa(lp6448
g20
ag71
ag3
ag110
aa(lp6449
g36
ag42
ag3
ag10
ag3
aa(lp6450
g36
ag2
ag17
ag4
ag40
ag4
aa(lp6451
g36
ag2
ag3
ag10
aa(lp6452
g20
ag71
ag3
ag4
ag5
aa(lp6453
g36
ag42
ag17
ag3
ag4
ag10
ag4
aa(lp6454
g36
aV11
p6455
aa(lp6456
g16
ag10
ag4
aV12
p6457
ag3
aa(lp6458
g4
ag3
ag5
aa(lp6459
g136
ag3
ag8
aa(lp6460
g7
ag3
ag4
aV13
p6461
ag3
aa(lp6462
g36
ag42
ag10
aV10
p6463
aa(lp6464
g7
ag3
ag8
ag4
aa(lp6465
g23
ag3
ag10
ag29
aa(lp6466
g16
ag10
ag4
ag40
aa(lp6467
g34
ag10
aV12
p6468
ag3
aa(lp6469
g20
ag3
ag5
aa(lp6470
g51
ag4
aV20
p6471
aa(lp6472
g16
ag17
ag27
aa(lp6473
g136
ag3
ag10
ag3
ag29
aa(lp6474
g29
ag3
ag12
ag29
aa(lp6475
g14
ag3
ag4
ag10
aa(lp6476
g36
ag10
aV13
p6477
aa(lp6478
g26
aV10
p6479
aa(lp6480
g82
ag27
aa(lp6481
g4
ag40
ag3
aa(lp6482
g26
ag3
ag27
aa(lp6483
g20
ag23
ag3
ag10
aa(lp6484
g29
ag3
ag10
ag29
aa(lp6485
g7
ag3
ag4
aV13
p6486
ag3
aa(lp6487
g7
ag3
ag110
aa(lp6488
g34
ag4
ag40
ag3
aa(lp6489
g36
ag2
ag17
ag27
aa(lp6490
g136
ag3
ag5
ag29
aa(lp6491
g20
ag23
ag8
ag4
aa(lp6492
g16
ag4
ag12
aa(lp6493
g2
ag4
aV22
p6494
aa(lp6495
g20
ag4
aV20
p6496
aa(lp6497
g197
ag3
ag8
ag4
aa(lp6498
g7
ag3
aV16
p6499
aa(lp6500
g82
ag4
ag40
ag4
aa(lp6501
g51
ag3
ag8
ag4
aa(lp6502
g197
ag3
ag10
ag3
ag29
aa(lp6503
g31
ag8
ag4
aa(lp6504
g20
ag71
ag3
ag5
aa(lp6505
g14
ag3
ag10
aa(lp6506
g20
ag71
ag3
ag10
aa(lp6507
g29
ag3
ag10
ag29
aa(lp6508
g16
aV10
p6509
aa(lp6510
g51
ag4
aV10
p6511
ag29
aa(lp6512
g34
ag12
aa(lp6513
g36
ag42
ag10
aV21
p6514
aa(lp6515
g42
ag3
ag8
ag4
aa(lp6516
g34
ag12
aa(lp6517
g51
ag4
ag40
aa(lp6518
g197
ag3
ag5
aa(lp6519
g36
ag3
aV14
p6520
aa(lp6521
g2
ag3
ag241
aa(lp6522
g34
ag4
ag12
aa(lp6523
g20
ag71
ag3
ag10
ag3
aa(lp6524
g4
aV10
p6525
ag825
aa(lp6526
g7
ag3
ag5
ag3
aa(lp6527
g42
ag3
ag5
aa(lp6528
g7
ag3
ag10
aa(lp6529
g7
aV10
p6530
aa(lp6531
g29
ag3
ag10
ag29
aa(lp6532
g7
ag3
aV16
p6533
aa(lp6534
g36
ag42
ag17
ag3
aV18
p6535
aa(lp6536
g2
ag3
ag10
aa(lp6537
g20
ag71
ag3
ag10
aa(lp6538
g7
ag3
ag241
aa(lp6539
g23
ag3
aV13
p6540
aa(lp6541
g4
aV10
p6542
aa(lp6543
g51
ag10
ag8
ag4
aa(lp6544
g36
ag42
ag3
ag10
aa(lp6545
g31
ag17
ag27
aa(lp6546
a(lp6547
g4
ag40
aa(lp6548
g16
ag3
aV15
p6549
aa(lp6550
g26
ag3
aV19
p6551
aa(lp6552
g26
ag3
ag27
aa(lp6553
g4
aV12
p6554
aa(lp6555
g29
aV21
p6556
aa(lp6557
g16
ag10
aV10
p6558
aa(lp6559
a(lp6560
g20
ag71
ag3
ag4
ag12
aa(lp6561
g42
ag3
ag4
ag10
aa(lp6562
g36
ag42
ag10
ag40
aa(lp6563
g20
ag23
ag3
ag27
aa(lp6564
g82
aV16
p6565
aa(lp6566
g82
aV16
p6567
aa(lp6568
g197
ag4
ag40
ag3
ag29
aa(lp6569
g20
ag23
ag3
ag27
aa(lp6570
g36
ag3
ag10
ag3
aa(lp6571
g26
ag8
ag4
aa(lp6572
g36
ag42
ag17
ag3
aV18
p6573
ag4
aa(lp6574
g36
ag42
ag17
ag10
aV19
p6575
ag4
aa(lp6576
g4
ag40
ag3
ag29
aa(lp6577
g29
ag3
ag12
aa(lp6578
g36
ag2
ag17
ag40
ag4
aa(lp6579
g36
ag17
ag12
aa(lp6580
g51
ag3
ag8
ag4
aa(lp6581
g4
ag10
ag8
ag4
aa(lp6582
g42
ag3
ag4
ag241
aa(lp6583
g4
ag3
aV13
p6584
aa(lp6585
g36
ag2
ag17
ag40
ag4
aa(lp6586
g7
ag3
aV18
p6587
aa(lp6588
g82
ag3
ag4
ag8
aa(lp6589
g2
ag3
ag5
aa(lp6590
g36
ag42
ag10
ag8
ag4
aa(lp6591
g42
ag3
ag8
ag4
aa(lp6592
g36
ag2
ag17
ag3
ag27
aa(lp6593
g20
ag23
ag4
aV10
p6594
aa(lp6595
g16
ag8
ag4
ag29
aa(lp6596
g14
ag3
aV13
p6597
ag3
aa(lp6598
g14
ag3
ag10
aa(lp6599
g29
ag3
ag10
ag29
aa(lp6600
g7
ag3
aV16
p6601
aa(lp6602
g245
ag10
ag4
ag12
aa(lp6603
g14
ag3
ag27
ag29
aa(lp6604
g36
ag17
ag3
ag27
aa(lp6605
g7
ag8
aa(lp6606
g14
ag3
ag27
ag29
aa(lp6607
g36
ag2
ag3
ag4
ag27
aa(lp6608
g7
ag17
aV19
p6609
aa(lp6610
g36
ag2
ag17
ag8
ag4
aa(lp6611
g16
ag17
ag10
ag8
ag4
aa(lp6612
g36
ag42
ag3
ag27
aa(lp6613
g36
ag42
ag17
ag3
ag4
ag12
aa(lp6614
g197
ag3
ag4
ag12
ag29
aa(lp6615
g16
ag3
ag4
ag10
aa(lp6616
g82
aV16
p6617
aa(lp6618
g29
ag3
ag5
ag3
aa(lp6619
g82
aV16
p6620
aa(lp6621
g16
ag17
ag4
aV15
p6622
aa(lp6623
g16
ag10
ag40
ag4
aa(lp6624
g16
ag10
ag40
ag4
aa(lp6625
g7
ag3
ag5
aa(lp6626
g36
ag42
ag17
ag3
ag4
ag10
ag4
aa(lp6627
g7
ag3
ag10
ag3
aa(lp6628
g136
ag3
ag12
aa(lp6629
g136
ag3
ag10
aa(lp6630
a(lp6631
g26
aV12
p6632
aa(lp6633
g16
ag4
ag8
ag4
aa(lp6634
g34
ag10
ag4
ag40
ag3
aa(lp6635
g26
aV10
p6636
aa(lp6637
a(lp6638
g14
ag3
ag4
aV18
p6639
aa(lp6640
g36
ag2
ag17
ag8
ag4
aa(lp6641
g26
aV10
p6642
aa(lp6643
g23
ag40
aa(lp6644
g26
ag3
ag5
ag29
aa(lp6645
g4
aV10
p6646
ag29
aa(lp6647
g51
ag4
ag40
ag3
aa(lp6648
g16
ag10
aV16
p6649
aa(lp6650
g36
ag2
ag17
ag3
ag4
ag12
aa(lp6651
g26
aV10
p6652
aa(lp6653
g20
ag23
ag3
ag4
ag5
aa(lp6654
g7
ag12
aa(lp6655
g16
ag3
ag4
aV23
p6656
aa(lp6657
g82
ag27
aa(lp6658
g82
ag4
aV10
p6659
aa(lp6660
g197
ag3
ag8
ag4
aa(lp6661
g4
ag3
ag12
aa(lp6662
g29
ag3
ag10
ag29
aa(lp6663
g82
ag3
aV11
p6664
aa(lp6665
g20
ag3
aV13
p6666
ag3
aa(lp6667
g36
ag2
ag3
ag241
ag29
aa(lp6668
g36
ag42
ag3
ag27
aa(lp6669
g36
ag42
ag3
aV23
p6670
aa(lp6671
g16
ag17
ag3
ag10
ag3
aa(lp6672
g34
ag10
ag40
ag3
aa(lp6673
g34
ag10
ag40
ag3
aa(lp6674
g7
ag4
aV21
p6675
aa(lp6676
g34
ag10
ag40
ag3
aa(lp6677
g34
ag10
ag40
ag3
aa(lp6678
g34
ag3
ag27
aa(lp6679
g36
ag2
ag40
aa(lp6680
g23
ag12
aa(lp6681
g7
ag3
aV13
p6682
aa(lp6683
g31
ag17
ag8
ag4
aa(lp6684
g4
ag3
ag8
aa(lp6685
g36
ag42
ag3
ag10
aa(lp6686
g197
ag12
aa(lp6687
g23
ag3
ag110
aa(lp6688
g4
ag3
ag10
aa(lp6689
g34
ag3
ag5
ag29
aa(lp6690
g34
ag4
aV10
p6691
ag29
aa(lp6692
g36
ag3
aV13
p6693
ag3
aa(lp6694
g197
ag3
ag10
aa(lp6695
g20
ag71
ag3
ag241
ag29
aa(lp6696
g136
ag3
ag5
aa(lp6697
g136
ag3
ag241
aa(lp6698
g34
ag4
aV10
p6699
aa(lp6700
g7
ag3
ag4
aV13
p6701
aa(lp6702
g4
ag40
aa(lp6703
g4
ag40
aa(lp6704
g14
aV20
p6705
aa(lp6706
g36
ag2
ag3
ag4
ag10
aa(lp6707
g26
ag27
aa(lp6708
g14
ag3
aV19
p6709
aa(lp6710
g197
ag3
ag8
ag4
aa(lp6711
g36
ag42
ag17
ag3
ag4
ag10
aa(lp6712
g4
ag3
ag110
aa(lp6713
g136
ag3
ag10
ag3
ag29
aa(lp6714
g36
ag2
ag17
ag40
aa(lp6715
g14
ag3
ag12
aa(lp6716
g36
aV17
p6717
ag4
aa(lp6718
g36
ag42
ag17
ag3
ag10
ag4
aa(lp6719
g20
ag71
ag3
aV13
p6720
aa(lp6721
g31
ag17
ag40
aa(lp6722
g20
ag23
ag4
ag40
ag3
aa(lp6723
g51
ag3
ag8
ag4
aa(lp6724
g42
ag3
ag4
ag12
ag29
aa(lp6725
g36
ag2
ag17
ag4
ag40
aa(lp6726
g16
ag17
ag3
ag10
aa(lp6727
g14
ag3
ag27
ag29
aa(lp6728
g14
ag3
aV13
p6729
ag3
aa(lp6730
g7
ag3
aV13
p6731
aa(lp6732
g36
ag2
ag381
aa(lp6733
g7
aV17
p6734
ag3
aa(lp6735
g20
ag3
ag4
ag110
aa(lp6736
g2
ag3
ag8
aa(lp6737
g4
ag10
aV10
p6738
ag3
aa(lp6739
g16
ag17
ag3
aV21
p6740
aa(lp6741
g2
ag4
ag27
aa(lp6742
g71
ag3
ag4
aV13
p6743
ag3
aa(lp6744
g4
ag3
ag10
aa(lp6745
g16
ag10
ag40
ag4
aa(lp6746
g20
ag3
ag10
ag29
aa(lp6747
g16
ag4
aV10
p6748
aa(lp6749
g14
ag3
ag10
ag4
ag29
aa(lp6750
g136
ag3
ag12
aa(lp6751
g31
ag3
ag5
ag29
aa(lp6752
g2
ag4
ag40
ag4
aa(lp6753
g20
ag23
ag3
ag27
aa(lp6754
g36
ag42
ag17
ag3
ag4
ag8
aa(lp6755
g26
ag40
aa(lp6756
g29
ag12
ag29
aa(lp6757
g42
ag3
aV18
p6758
aa(lp6759
g7
ag3
aV20
p6760
aa(lp6761
g36
ag4
aV15
p6762
aa(lp6763
g36
ag4
aV15
p6764
aa(lp6765
g36
ag42
ag3
ag4
ag8
aa(lp6766
g29
ag3
ag27
ag29
aa(lp6767
g14
ag3
ag4
aV18
p6768
aa(lp6769
g31
aV20
p6770
aa(lp6771
g29
ag3
ag10
ag3
ag29
aa(lp6772
g4
ag40
aa(lp6773
g82
ag40
ag4
aa(lp6774
g197
ag3
ag5
aa(lp6775
g7
ag12
aa(lp6776
g14
aV20
p6777
aa(lp6778
g4
aV11
p6779
aa(lp6780
g82
ag3
aV18
p6781
ag3
aa(lp6782
g4
ag40
aa(lp6783
g16
ag17
ag10
ag12
aa(lp6784
g16
ag10
ag40
ag3
aa(lp6785
g42
ag10
aV19
p6786
ag4
aa(lp6787
g26
aV10
p6788
ag3
aa(lp6789
g26
ag3
ag27
aa(lp6790
g82
ag3
ag10
ag3
aa(lp6791
g20
ag71
ag3
ag12
ag29
aa(lp6792
g20
aV20
p6793
aa(lp6794
g36
ag17
aV20
p6795
aa(lp6796
g245
ag10
ag4
aV10
p6797
ag3
aa(lp6798
a(lp6799
a(lp6800
g16
ag17
ag3
ag4
ag5
aa(lp6801
g16
aV11
p6802
aa(lp6803
g4
ag12
aa(lp6804
g16
ag3
ag10
aa(lp6805
g2
ag3
aV14
p6806
aa(lp6807
g16
ag3
ag4
ag10
ag3
aa(lp6808
g16
ag12
aa(lp6809
g16
ag17
aV10
p6810
aa(lp6811
g136
ag3
ag5
aa(lp6812
g20
ag71
ag3
ag8
ag4
aa(lp6813
g20
ag23
ag8
ag4
aa(lp6814
g36
ag4
aV15
p6815
aa(lp6816
g36
ag3
ag27
aa(lp6817
g7
ag17
ag3
ag12
aa(lp6818
g197
ag3
ag5
aa(lp6819
g82
ag3
ag4
ag5
aa(lp6820
g4
aV11
p6821
aa(lp6822
g2
aV10
p6823
aa(lp6824
g16
ag17
aV20
p6825
aa(lp6826
g20
ag71
ag3
ag110
aa(lp6827
a(lp6828
g16
ag17
ag3
aV21
p6829
aa(lp6830
g20
ag71
ag10
aV19
p6831
ag4
aa(lp6832
g16
ag3
ag4
ag110
ag3
aa(lp6833
g42
ag3
ag4
ag241
aa(lp6834
g20
ag3
aV18
p6835
aa(lp6836
g7
ag17
ag3
aV13
p6837
aa(lp6838
g36
ag2
ag12
ag29
aa(lp6839
g36
ag3
ag5
ag29
aa(lp6840
g36
ag3
ag5
ag3
aa(lp6841
g36
ag42
ag3
ag10
ag4
aa(lp6842
g20
ag71
ag3
aV16
p6843
aa(lp6844
g36
ag2
ag17
ag3
ag5
aa(lp6845
g14
ag3
ag4
ag10
ag3
aa(lp6846
g16
ag10
ag12
aa(lp6847
g26
aV14
p6848
aa(lp6849
g26
aV14
p6850
aa(lp6851
g23
ag12
ag29
aa(lp6852
g82
ag3
ag4
ag110
aa(lp6853
g136
ag3
ag5
aa(lp6854
g51
ag40
ag4
ag29
aa(lp6855
g16
ag17
ag3
ag10
ag3
aa(lp6856
g7
ag3
ag5
ag3
aa(lp6857
a(lp6858
a(lp6859
g36
ag3
aV13
p6860
aa(lp6861
g82
ag3
ag4
ag5
aa(lp6862
g20
ag23
ag27
aa(lp6863
g82
aV12
p6864
ag3
aa(lp6865
g4
ag3
aV13
p6866
aa(lp6867
g36
aV11
p6868
aa(lp6869
g34
aV11
p6870
aa(lp6871
g7
ag17
ag3
aV14
p6872
aa(lp6873
g82
ag3
ag10
ag3
aa(lp6874
g14
ag10
aV17
p6875
aa(lp6876
g197
ag3
aV13
p6877
aa(lp6878
g136
ag8
aa(lp6879
g29
ag3
ag5
ag29
aa(lp6880
g31
ag3
aV13
p6881
aa(lp6882
g7
ag17
ag3
aV14
p6883
aa(lp6884
g14
ag3
ag241
aa(lp6885
g4
ag3
ag110
aa(lp6886
g7
ag3
ag27
aa(lp6887
g16
aV20
p6888
aa(lp6889
g36
ag42
ag17
ag3
ag4
ag8
aa(lp6890
a(lp6891
g20
ag3
aV19
p6892
aa(lp6893
g7
ag3
ag5
ag29
aa(lp6894
g245
ag3
ag10
aa(lp6895
g36
ag42
ag3
ag241
ag29
aa(lp6896
g7
aV15
p6897
aa(lp6898
g42
ag10
ag40
ag4
aa(lp6899
g7
ag17
ag4
ag12
aa(lp6900
g26
ag3
ag5
ag3
aa(lp6901
g7
aV22
p6902
aa(lp6903
g31
ag17
ag10
ag40
aa(lp6904
g42
ag10
ag4
ag12
aa(lp6905
a(lp6906
a(lp6907
g31
ag17
aV10
p6908
aa(lp6909
g2
ag3
ag4
ag10
aa(lp6910
g197
ag3
ag5
ag3
aa(lp6911
g16
ag3
aV16
p6912
ag29
aa(lp6913
g36
ag42
ag3
ag10
ag3
aa(lp6914
g7
ag17
ag3
ag8
ag4
aa(lp6915
g7
ag3
aV14
p6916
aa(lp6917
a(lp6918
g16
ag3
ag4
aV13
p6919
aa(lp6920
g7
ag3
aV18
p6921
aa(lp6922
g2
ag3
ag10
ag3
aa(lp6923
g26
aV14
p6924
aa(lp6925
g36
ag42
ag3
ag5
aa(lp6926
g16
ag381
aa(lp6927
g16
ag17
ag10
aV17
p6928
ag3
aa(lp6929
g16
ag17
ag10
ag4
ag40
aa(lp6930
g82
ag8
aa(lp6931
g20
aV16
p6932
aa(lp6933
g34
ag12
aa(lp6934
g7
aV15
p6935
aa(lp6936
g34
ag40
ag4
aa(lp6937
g36
ag17
ag381
aa(lp6938
g20
ag71
ag10
aV10
p6939
aa(lp6940
g14
ag3
ag8
aa(lp6941
g7
ag3
aV11
p6942
aa(lp6943
g10
aV14
p6944
aa(lp6945
g7
ag3
ag10
ag4
aa(lp6946
g20
ag23
ag3
ag10
aa(lp6947
g16
ag4
ag381
aa(lp6948
g51
ag40
ag4
ag29
aa(lp6949
g14
ag3
ag4
ag12
ag29
aa(lp6950
a(lp6951
g16
ag17
ag10
ag12
aa(lp6952
a(lp6953
g7
ag3
ag5
ag3
aa(lp6954
g36
ag17
ag27
aa(lp6955
g7
ag3
ag241
aa(lp6956
g26
ag124
aa(lp6957
g7
ag3
aV13
p6958
aa(lp6959
g36
ag42
ag17
ag3
ag5
aa(lp6960
g2
ag3
ag10
aa(lp6961
g31
ag381
aa(lp6962
g82
ag40
ag29
aa(lp6963
g29
ag3
ag27
ag29
aa(lp6964
g42
ag3
ag10
ag4
aa(lp6965
g26
ag3
ag27
aa(lp6966
g7
ag3
ag241
aa(lp6967
g245
ag3
ag5
aa(lp6968
g245
ag3
ag10
aa(lp6969
g26
ag3
ag10
aa(lp6970
g20
aV12
p6971
aa(lp6972
g16
ag4
aV10
p6973
aa(lp6974
g7
ag3
ag5
aa(lp6975
g4
ag40
aa(lp6976
g4
ag40
aa(lp6977
g16
ag17
ag3
ag10
ag3
aa(lp6978
g36
ag2
ag3
ag10
ag3
aa(lp6979
g4
ag40
aa(lp6980
g7
ag3
ag241
aa(lp6981
g20
ag23
ag3
ag5
aa(lp6982
g7
ag3
aV18
p6983
aa(lp6984
g197
ag8
aa(lp6985
g36
ag17
ag27
aa(lp6986
g36
ag42
ag17
ag3
ag5
ag3
aa(lp6987
g42
ag10
aV19
p6988
ag4
aa(lp6989
g82
aV19
p6990
aa(lp6991
g36
ag12
aa(lp6992
g36
ag3
ag5
aa(lp6993
g82
ag40
ag3
aa(lp6994
a(lp6995
g4
ag3
aV13
p6996
aa(lp6997
g20
ag3
aV13
p6998
ag3
aa(lp6999
g4
ag3
ag10
ag3
aa(lp7000
g20
ag23
ag3
ag4
ag5
aa(lp7001
g34
ag10
ag4
ag40
aa(lp7002
g16
ag4
aV10
p7003
aa(lp7004
g197
ag8
aa(lp7005
g7
ag3
ag4
ag110
aa(lp7006
g36
ag42
ag17
ag10
ag12
aa(lp7007
g16
ag10
ag4
aV10
p7008
aa(lp7009
g16
aV11
p7010
aa(lp7011
g197
ag3
ag12
aa(lp7012
g42
ag3
ag4
aV18
p7013
aa(lp7014
g20
ag23
ag3
ag10
ag4
aa(lp7015
g36
ag3
ag5
aa(lp7016
g42
ag3
aV18
p7017
aa(lp7018
g36
ag3
ag5
ag3
aa(lp7019
g20
ag71
ag3
ag4
ag27
aa(lp7020
g82
aV17
p7021
ag3
aa(lp7022
g197
ag3
aV16
p7023
aa(lp7024
g2
ag3
ag4
ag10
aa(lp7025
g16
ag17
ag3
aV19
p7026
aa(lp7027
g4
ag40
ag3
ag29
aa(lp7028
g36
ag42
ag3
ag5
aa(lp7029
g36
ag17
ag3
ag10
aa(lp7030
g36
ag42
ag3
ag10
aa(lp7031
g4
ag3
ag110
aa(lp7032
g20
ag3
ag27
aa(lp7033
g36
ag2
ag12
ag29
aa(lp7034
g36
ag17
ag4
aV20
p7035
aa(lp7036
g20
ag23
ag3
aV20
p7037
aa(lp7038
g20
ag23
ag4
aV10
p7039
aa(lp7040
g20
ag40
ag4
aa(lp7041
g20
ag27
aa(lp7042
g20
ag23
ag3
ag10
ag4
aa(lp7043
g16
ag17
ag10
ag40
ag4
aa(lp7044
g42
ag10
aV10
p7045
ag3
aa(lp7046
g42
ag10
aV17
p7047
aa(lp7048
g29
ag3
ag10
ag29
aa(lp7049
g14
ag3
ag4
ag10
aa(lp7050
g36
ag42
ag3
ag5
aa(lp7051
g16
ag3
ag5
ag3
aa(lp7052
g42
ag3
ag8
ag4
aa(lp7053
g197
ag3
ag27
aa(lp7054
g26
ag3
ag10
aa(lp7055
g2
ag3
aV18
p7056
aa(lp7057
g4
ag3
ag8
ag29
aa(lp7058
g20
ag23
ag12
ag29
aa(lp7059
g14
ag3
aV18
p7060
ag3
aa(lp7061
g197
ag8
aa(lp7062
g16
ag17
ag10
ag8
aa(lp7063
g36
ag17
ag3
ag5
aa(lp7064
g36
ag17
ag3
ag5
aa(lp7065
g36
ag3
aV13
p7066
ag3
aa(lp7067
g36
ag42
ag3
aV18
p7068
aa(lp7069
g136
ag3
ag5
aa(lp7070
g7
ag17
ag10
ag8
ag4
aa(lp7071
g2
ag27
aa(lp7072
a(lp7073
g26
ag3
ag10
ag3
aa(lp7074
g36
ag17
ag40
ag4
aa(lp7075
g7
ag40
ag4
aa(lp7076
g197
ag3
ag10
ag3
aa(lp7077
g7
ag3
aV20
p7078
aa(lp7079
g20
ag23
ag3
aV13
p7080
aa(lp7081
g14
ag3
ag10
ag4
ag29
aa(lp7082
g20
ag3
ag10
ag3
aa(lp7083
g31
ag3
aV11
p7084
aa(lp7085
g36
ag3
aV11
p7086
aa(lp7087
g31
ag17
aV10
p7088
ag29
aa(lp7089
a(lp7090
g136
ag3
ag5
aa(lp7091
g36
ag42
ag3
ag12
aa(lp7092
g36
ag2
ag3
ag8
aa(lp7093
g51
ag3
ag4
ag8
aa(lp7094
g36
ag3
ag110
aa(lp7095
g36
ag42
ag3
ag5
aa(lp7096
g2
ag4
ag40
ag3
aa(lp7097
g7
ag3
aV19
p7098
aa(lp7099
g136
ag3
ag5
aa(lp7100
g2
ag3
ag10
ag3
aa(lp7101
g82
ag3
ag4
ag110
aa(lp7102
g16
ag17
ag10
ag40
ag4
aa(lp7103
g51
ag4
ag27
aa(lp7104
g42
ag3
ag4
aV18
p7105
aa(lp7106
g26
aV19
p7107
aa(lp7108
g4
ag10
ag40
ag29
aa(lp7109
g31
ag17
ag10
ag40
aa(lp7110
g2
ag40
ag4
aa(lp7111
g4
ag3
ag5
aa(lp7112
g31
ag17
ag27
aa(lp7113
g136
aV12
p7114
aa(lp7115
g4
ag3
aV13
p7116
ag3
aa(lp7117
g16
ag3
ag27
ag29
aa(lp7118
g245
ag3
ag4
ag110
ag3
aa(lp7119
g197
aV15
p7120
aa(lp7121
g16
ag17
ag3
ag27
aa(lp7122
g16
ag4
aV16
p7123
aa(lp7124
g16
ag10
ag8
aa(lp7125
g16
ag17
ag3
ag10
ag3
aa(lp7126
g82
aV16
p7127
aa(lp7128
g7
ag12
aa(lp7129
g136
ag12
aa(lp7130
g136
aV16
p7131
ag29
aa(lp7132
g20
ag27
aa(lp7133
g82
ag8
aa(lp7134
g36
ag2
ag3
ag27
aa(lp7135
g82
ag10
ag8
ag4
aa(lp7136
g20
ag23
ag3
ag4
ag5
aa(lp7137
g7
ag4
aV10
p7138
ag29
aa(lp7139
g71
ag3
ag8
ag4
aa(lp7140
g29
ag40
ag3
ag29
aa(lp7141
g26
ag3
ag27
aa(lp7142
g34
ag4
aV10
p7143
aa(lp7144
g29
ag3
ag12
ag29
aa(lp7145
g20
ag3
aV20
p7146
aa(lp7147
g20
ag8
aa(lp7148
a(lp7149
g31
ag17
ag3
ag8
aa(lp7150
g20
ag23
ag3
aV13
p7151
aa(lp7152
g36
ag3
aV11
p7153
aa(lp7154
g42
ag3
ag4
ag5
aa(lp7155
g71
ag3
aV13
p7156
ag3
aa(lp7157
g26
ag10
ag12
ag29
aa(lp7158
g14
ag3
ag27
aa(lp7159
g34
ag8
ag4
ag29
aa(lp7160
g31
ag8
aa(lp7161
g26
ag3
ag27
aa(lp7162
a(lp7163
g26
ag3
ag27
aa(lp7164
g26
ag3
ag10
ag3
aa(lp7165
g4
aV10
p7166
ag29
aa(lp7167
g4
aV17
p7168
aa(lp7169
g20
ag71
ag3
aV13
p7170
aa(lp7171
g20
ag23
ag8
ag4
aa(lp7172
g36
ag2
ag12
ag29
aa(lp7173
g34
ag12
aa(lp7174
g36
ag42
ag17
ag3
ag12
aa(lp7175
g2
ag3
ag4
ag10
aa(lp7176
g42
ag10
aV10
p7177
aa(lp7178
g36
ag3
aV11
p7179
aa(lp7180
g7
aV12
p7181
ag3
aa(lp7182
g29
ag3
ag10
ag3
ag29
aa(lp7183
g16
ag3
ag4
ag5
aa(lp7184
g20
ag8
aa(lp7185
g2
ag4
ag40
ag3
aa(lp7186
g36
ag3
aV13
p7187
aa(lp7188
g82
ag3
aV11
p7189
aa(lp7190
g20
ag3
ag4
ag27
aa(lp7191
g29
ag40
ag29
aa(lp7192
g26
ag3
ag10
ag3
aa(lp7193
g16
ag17
ag10
ag40
ag4
aa(lp7194
g7
ag3
ag4
aV13
p7195
aa(lp7196
g31
ag3
aV13
p7197
aa(lp7198
g36
ag2
ag3
aV14
p7199
aa(lp7200
g23
ag3
ag5
ag29
aa(lp7201
g16
ag3
ag241
aa(lp7202
g16
aV11
p7203
aa(lp7204
g7
ag17
aV14
p7205
aa(lp7206
g23
ag12
aa(lp7207
g23
ag3
ag10
ag29
aa(lp7208
g71
ag10
ag40
ag3
ag29
aa(lp7209
g23
ag12
aa(lp7210
g14
aV21
p7211
aa(lp7212
g197
ag3
ag4
aV21
p7213
aa(lp7214
g34
ag4
aV10
p7215
aa(lp7216
g14
ag3
ag27
aa(lp7217
g197
ag3
ag4
ag12
ag29
aa(lp7218
g197
ag3
ag8
ag4
aa(lp7219
g26
ag40
ag3
aa(lp7220
g29
ag3
ag12
ag29
aa(lp7221
g197
ag3
ag10
ag12
aa(lp7222
g36
ag42
ag10
ag4
aV12
p7223
ag3
aa(lp7224
g29
ag3
ag10
ag3
ag29
aa(lp7225
g29
ag3
ag10
ag3
ag29
aa(lp7226
g36
ag2
ag40
ag3
aa(lp7227
g29
ag3
ag12
ag29
aa(lp7228
g23
ag40
ag4
ag29
aa(lp7229
g26
ag8
aa(lp7230
g16
ag12
aa(lp7231
g23
aV10
p7232
ag29
aa(lp7233
g36
ag42
ag3
ag10
ag29
aa(lp7234
g36
ag42
ag3
aV16
p7235
ag29
aa(lp7236
g36
ag381
aa(lp7237
g14
ag8
aa(lp7238
g16
ag17
ag3
ag4
aV23
p7239
aa(lp7240
g29
ag3
ag27
ag29
aa(lp7241
g51
ag4
ag27
aa(lp7242
g245
ag27
aa(lp7243
g42
ag3
ag12
aa(lp7244
g245
aV21
p7245
aa(lp7246
g245
ag4
ag40
aa(lp7247
g245
aV10
p7248
ag29
aa(lp7249
a(lp7250
g34
ag3
ag5
ag3
aa(lp7251
g197
ag3
ag10
ag3
aa(lp7252
g4
ag40
aa(lp7253
g2
ag3
ag10
ag3
aa(lp7254
g14
ag10
ag27
aa(lp7255
g16
ag10
ag40
aa(lp7256
g14
ag3
ag27
aa(lp7257
g136
ag3
ag8
aa(lp7258
g42
ag3
ag12
aa(lp7259
g31
ag17
ag40
aa(lp7260
g34
ag12
aa(lp7261
g197
ag10
ag40
ag3
ag29
aa(lp7262
g26
ag3
aV13
p7263
aa(lp7264
g26
ag3
ag5
aa(lp7265
g36
ag42
ag3
ag8
ag4
aa(lp7266
g23
ag3
ag4
ag5
aa(lp7267
g34
ag27
aa(lp7268
g29
ag3
ag10
ag3
ag29
aa(lp7269
g31
ag3
ag4
ag241
ag29
aa(lp7270
g4
ag3
aV13
p7271
aa(lp7272
g16
ag3
aV11
p7273
aa(lp7274
g36
ag3
ag4
ag110
aa(lp7275
g7
ag17
ag10
ag8
ag4
aa(lp7276
g136
ag3
ag110
aa(lp7277
g36
ag2
ag17
ag10
ag40
aa(lp7278
g7
ag3
aV18
p7279
ag3
aa(lp7280
g29
ag3
ag12
ag29
aa(lp7281
g26
ag3
ag27
aa(lp7282
g23
ag3
ag110
aa(lp7283
g36
ag42
ag17
ag3
aV18
p7284
ag3
aa(lp7285
g42
ag10
aV10
p7286
aa(lp7287
g26
ag12
ag29
aa(lp7288
g42
ag3
ag4
ag10
aa(lp7289
g42
ag3
ag4
ag10
aa(lp7290
g14
ag3
ag10
ag3
aa(lp7291
g23
ag3
ag4
aV13
p7292
ag3
aa(lp7293
g36
ag2
ag3
ag5
aa(lp7294
g31
ag17
ag3
ag10
aa(lp7295
g36
ag3
ag10
ag3
aa(lp7296
g20
ag40
ag4
ag29
aa(lp7297
g36
ag3
ag10
aa(lp7298
g197
ag3
ag40
ag29
aa(lp7299
g20
ag23
ag3
aV13
p7300
aa(lp7301
g36
ag42
ag3
aV16
p7302
ag29
aa(lp7303
g26
ag3
ag5
aa(lp7304
g42
ag10
ag4
aV10
p7305
aa(lp7306
g51
ag40
ag4
ag29
aa(lp7307
g29
ag3
ag27
ag29
aa(lp7308
g16
ag3
ag27
ag29
aa(lp7309
g42
ag3
ag4
ag10
aa(lp7310
g82
ag3
ag12
aa(lp7311
g36
ag17
ag3
ag5
aa(lp7312
g36
ag42
ag17
ag3
ag10
ag4
aa(lp7313
g7
ag3
ag5
aa(lp7314
g14
aV20
p7315
aa(lp7316
g16
ag17
ag3
ag10
ag3
aa(lp7317
g14
ag3
ag10
aa(lp7318
g82
ag3
ag10
ag3
aa(lp7319
g82
ag3
aV18
p7320
ag3
aa(lp7321
g36
ag3
ag10
ag3
aa(lp7322
g14
ag3
ag12
aa(lp7323
g36
aV14
p7324
aa(lp7325
g71
ag3
ag10
ag4
aa(lp7326
g7
ag12
aa(lp7327
g29
ag12
ag29
aa(lp7328
g7
ag12
aa(lp7329
g7
ag3
ag5
aa(lp7330
g23
ag40
ag4
ag29
aa(lp7331
g14
ag3
ag27
aa(lp7332
g36
ag42
ag3
aV13
p7333
aa(lp7334
g26
ag3
ag10
aa(lp7335
g26
ag3
ag27
aa(lp7336
g16
ag17
ag3
aV18
p7337
ag3
aa(lp7338
g51
ag4
aV10
p7339
aa(lp7340
g20
ag40
ag4
ag29
aa(lp7341
g20
ag23
ag3
ag27
aa(lp7342
g36
ag3
ag10
ag3
aa(lp7343
g4
ag3
ag10
aa(lp7344
g7
ag17
ag3
ag110
aa(lp7345
g16
ag3
ag241
aa(lp7346
g31
ag17
ag40
aa(lp7347
g82
ag3
ag4
ag5
aa(lp7348
g31
ag17
ag3
ag10
aa(lp7349
g14
ag3
ag4
ag10
aa(lp7350
g42
ag3
ag5
aa(lp7351
g42
ag3
ag12
aa(lp7352
g36
ag2
ag381
aa(lp7353
g7
ag3
ag12
aa(lp7354
g51
ag3
ag5
ag29
aa(lp7355
g20
ag71
ag3
ag4
ag8
aa(lp7356
g7
ag40
ag4
aa(lp7357
g36
ag3
ag10
ag3
aa(lp7358
g4
ag40
aa(lp7359
g245
ag3
ag27
aa(lp7360
g7
ag17
ag3
aV13
p7361
aa(lp7362
g16
aV16
p7363
ag29
aa(lp7364
g26
ag3
aV19
p7365
aa(lp7366
g26
ag3
aV19
p7367
aa(lp7368
g245
ag4
ag8
aa(lp7369
g14
ag3
ag241
aa(lp7370
a(lp7371
g14
ag3
ag4
ag10
aa(lp7372
g26
aV19
p7373
aa(lp7374
g20
aV11
p7375
aa(lp7376
g36
ag42
ag17
ag3
ag4
ag10
aa(lp7377
g4
ag3
aV13
p7378
ag3
aa(lp7379
g2
ag3
aV13
p7380
aa(lp7381
g20
ag71
ag3
ag5
aa(lp7382
g29
ag3
ag5
ag3
aa(lp7383
g29
ag3
ag10
ag3
ag29
aa(lp7384
g31
ag17
ag3
ag5
aa(lp7385
g14
ag10
aV17
p7386
aa(lp7387
g20
ag40
ag4
aa(lp7388
g36
ag2
ag17
ag3
ag5
aa(lp7389
g16
ag17
ag3
ag4
ag5
aa(lp7390
g36
ag2
ag17
ag3
aV18
p7391
ag3
aa(lp7392
g23
ag3
aV13
p7393
ag3
aa(lp7394
g7
ag4
aV15
p7395
aa(lp7396
g36
ag2
ag17
ag3
aV18
p7397
ag3
aa(lp7398
g42
ag3
ag4
aV18
p7399
aa(lp7400
g71
ag10
aV16
p7401
aa(lp7402
g14
ag3
aV18
p7403
aa(lp7404
g136
ag3
ag5
aa(lp7405
g197
ag12
aa(lp7406
g7
ag17
ag27
aa(lp7407
g14
ag3
aV23
p7408
aa(lp7409
g7
ag17
ag3
ag8
ag4
aa(lp7410
a(lp7411
g36
ag17
ag4
aV20
p7412
aa(lp7413
g7
ag3
ag27
aa(lp7414
g7
ag27
aa(lp7415
g136
ag3
aV11
p7416
aa(lp7417
g20
ag71
ag3
ag4
aV16
p7418
aa(lp7419
g20
ag71
ag10
ag40
ag4
aa(lp7420
g16
ag3
ag241
aa(lp7421
g36
ag2
ag17
ag3
ag5
aa(lp7422
g36
ag3
aV14
p7423
aa(lp7424
g36
ag42
ag17
ag10
ag12
aa(lp7425
g20
ag23
ag27
aa(lp7426
g7
ag8
ag4
aa(lp7427
g7
ag8
ag4
aa(lp7428
g36
aV17
p7429
ag4
aa(lp7430
g51
ag4
ag40
aa(lp7431
g197
ag3
ag12
aa(lp7432
g31
ag3
aV11
p7433
aa(lp7434
g4
ag40
aa(lp7435
g136
ag3
ag5
aa(lp7436
g16
ag17
ag3
ag5
ag3
aa(lp7437
g36
ag3
aV13
p7438
aa(lp7439
g36
ag42
ag17
ag3
ag10
ag4
aa(lp7440
g31
ag3
aV13
p7441
aa(lp7442
g31
ag17
ag3
ag5
aa(lp7443
g31
ag17
ag3
ag5
aa(lp7444
g197
ag3
ag5
ag3
aa(lp7445
a(lp7446
g82
ag3
ag4
ag8
aa(lp7447
g34
ag12
aa(lp7448
g20
aV12
p7449
ag3
aa(lp7450
g7
ag3
ag110
aa(lp7451
g2
ag3
ag10
ag3
aa(lp7452
g82
ag3
ag4
ag5
aa(lp7453
g20
ag3
ag4
ag12
ag29
aa(lp7454
g4
ag40
ag3
ag29
aa(lp7455
g16
ag3
ag4
aV13
p7456
aa(lp7457
g245
ag8
aa(lp7458
g16
aV10
p7459
aa(lp7460
g29
ag40
ag4
ag29
aa(lp7461
g7
ag3
aV15
p7462
aa(lp7463
g42
ag3
ag110
aa(lp7464
g7
ag3
ag10
aa(lp7465
g7
ag17
ag3
ag110
aa(lp7466
g82
ag8
aa(lp7467
g20
ag23
ag3
ag4
ag110
aa(lp7468
g197
ag8
aa(lp7469
g36
ag17
ag3
ag5
aa(lp7470
g31
ag17
ag10
ag8
ag4
aa(lp7471
g36
ag42
ag3
ag241
aa(lp7472
g31
ag17
ag3
ag27
aa(lp7473
g7
ag3
ag4
aV13
p7474
ag3
aa(lp7475
g16
aV11
p7476
aa(lp7477
g136
ag3
aV18
p7478
ag3
aa(lp7479
g16
aV11
p7480
aa(lp7481
g16
ag10
ag4
ag12
aa(lp7482
g29
ag3
ag10
ag29
aa(lp7483
g20
ag3
ag241
aa(lp7484
g16
aV16
p7485
ag29
aa(lp7486
g197
ag3
aV18
p7487
ag29
aa(lp7488
g2
ag3
aV20
p7489
aa(lp7490
g31
ag8
aa(lp7491
g16
ag17
ag10
ag40
ag4
aa(lp7492
g4
ag40
ag29
aa(lp7493
g4
ag12
aa(lp7494
g34
ag12
aa(lp7495
g7
ag17
ag3
ag5
ag3
aa(lp7496
g20
ag23
ag12
ag29
aa(lp7497
g2
ag4
ag40
ag4
aa(lp7498
g4
ag40
ag29
aa(lp7499
g7
ag3
ag241
aa(lp7500
g36
ag42
ag10
aV10
p7501
ag29
aa(lp7502
g26
ag40
ag3
aa(lp7503
g36
ag42
ag10
ag8
ag29
aa(lp7504
g34
ag4
aV22
p7505
aa(lp7506
g14
ag3
aV15
p7507
aa(lp7508
g82
ag3
aV18
p7509
aa(lp7510
g42
ag3
ag4
aV16
p7511
aa(lp7512
g136
ag3
aV16
p7513
aa(lp7514
g31
ag3
aV13
p7515
ag3
aa(lp7516
g2
ag3
ag12
aa(lp7517
g42
ag3
ag10
ag4
aa(lp7518
g31
ag17
ag3
ag8
aa(lp7519
g31
ag17
aV10
p7520
aa(lp7521
g71
ag3
ag27
aa(lp7522
g82
ag12
aa(lp7523
g7
ag3
aV13
p7524
aa(lp7525
g36
ag3
aV13
p7526
aa(lp7527
g20
ag71
ag3
ag4
ag12
aa(lp7528
g16
ag8
ag4
ag29
aa(lp7529
g7
ag3
ag12
aa(lp7530
g36
ag42
ag3
ag8
ag4
aa(lp7531
g36
ag17
ag27
aa(lp7532
g36
ag3
ag4
ag12
ag29
aa(lp7533
g20
ag3
ag12
ag29
aa(lp7534
g20
ag3
ag12
aa(lp7535
g14
ag3
ag27
aa(lp7536
g23
ag3
ag110
aa(lp7537
g51
ag4
ag8
aa(lp7538
g51
ag4
ag8
aa(lp7539
g4
ag3
aV15
p7540
aa(lp7541
g4
ag3
ag110
aa(lp7542
g20
ag71
ag3
ag10
ag3
aa(lp7543
g7
ag3
ag110
aa(lp7544
g36
ag4
ag40
ag4
aa(lp7545
a(lp7546
g7
ag3
aV11
p7547
aa(lp7548
g82
aV11
p7549
aa(lp7550
g36
ag42
ag3
aV16
p7551
aa(lp7552
g136
ag3
ag110
aa(lp7553
g82
ag3
ag10
ag3
aa(lp7554
g20
aV20
p7555
aa(lp7556
g29
ag3
ag27
ag29
aa(lp7557
g36
ag2
ag17
ag4
ag40
ag3
aa(lp7558
g31
aV21
p7559
aa(lp7560
g4
ag40
ag3
aa(lp7561
a(lp7562
g245
ag3
aV21
p7563
aa(lp7564
g36
ag2
ag3
aV18
p7565
ag29
aa(lp7566
g14
ag3
ag10
aa(lp7567
g31
ag17
aV10
p7568
aa(lp7569
g7
ag3
aV18
p7570
aa(lp7571
g14
ag3
ag4
ag5
aa(lp7572
g42
ag10
aV19
p7573
aa(lp7574
g245
ag3
ag12
aa(lp7575
g245
ag3
ag12
ag29
aa(lp7576
g36
ag42
ag3
aV18
p7577
aa(lp7578
g20
ag3
aV18
p7579
aa(lp7580
g51
aV10
p7581
aa(lp7582
g29
ag40
ag4
ag29
aa(lp7583
g7
ag3
ag27
aa(lp7584
g197
ag3
ag12
ag29
aa(lp7585
g20
ag3
ag5
aa(lp7586
g71
ag3
aV11
p7587
aa(lp7588
g16
ag3
ag4
ag12
aa(lp7589
g825
ag3
ag12
aa(lp7590
g36
ag2
ag17
ag27
aa(lp7591
g7
ag3
ag10
aa(lp7592
g16
ag3
ag4
ag110
ag3
aa(lp7593
g7
ag3
ag12
aa(lp7594
g4
ag3
aV15
p7595
aa(lp7596
g7
ag3
ag27
aa(lp7597
g42
ag10
aV16
p7598
aa(lp7599
g2
ag3
aV13
p7600
aa(lp7601
g23
ag40
ag4
ag29
aa(lp7602
g16
ag17
ag3
ag10
aa(lp7603
g7
ag17
ag3
aV13
p7604
aa(lp7605
g36
ag2
ag17
ag4
ag40
ag4
aa(lp7606
g36
ag3
aV11
p7607
aa(lp7608
g7
ag3
aV11
p7609
aa(lp7610
g29
ag40
ag4
ag29
aa(lp7611
g16
ag3
ag27
ag29
aa(lp7612
g82
ag3
aV18
p7613
ag3
aa(lp7614
a(lp7615
g16
ag17
ag3
ag10
ag3
aa(lp7616
g36
ag3
ag110
ag3
aa(lp7617
g7
ag17
ag10
ag40
aa(lp7618
g7
ag3
aV13
p7619
aa(lp7620
g20
ag71
ag3
ag4
ag12
aa(lp7621
g20
aV17
p7622
ag4
aa(lp7623
g197
ag3
ag10
ag3
aa(lp7624
g23
ag40
ag4
ag29
aa(lp7625
g197
ag8
aa(lp7626
g82
ag3
ag8
ag4
ag29
aa(lp7627
g34
ag8
ag29
aa(lp7628
g71
ag3
ag5
ag29
aa(lp7629
g42
ag3
ag12
aa(lp7630
g4
ag3
aV11
p7631
aa(lp7632
g20
ag3
aV16
p7633
aa(lp7634
g34
ag3
ag4
ag110
aa(lp7635
a(lp7636
g136
ag3
ag5
aa(lp7637
g36
ag12
ag29
aa(lp7638
g29
ag3
ag8
ag29
aa(lp7639
g136
ag381
aa(lp7640
g36
ag2
ag17
ag3
ag10
ag3
aa(lp7641
g36
ag3
ag110
ag3
aa(lp7642
g7
ag40
ag3
aa(lp7643
g20
aV17
p7644
aa(lp7645
g16
ag17
ag12
aa(lp7646
g82
ag27
aa(lp7647
g31
ag10
ag40
ag3
aa(lp7648
g197
ag3
ag27
aa(lp7649
g29
ag40
ag4
ag29
aa(lp7650
g7
ag27
aa(lp7651
g7
ag27
aa(lp7652
g23
ag27
aa(lp7653
g29
ag3
ag10
ag29
aa(lp7654
g136
ag10
ag40
ag3
aa(lp7655
g36
ag2
ag8
ag4
aa(lp7656
g31
ag17
ag27
aa(lp7657
g36
ag2
ag3
ag5
aa(lp7658
g42
ag3
ag8
ag4
aa(lp7659
g16
ag3
ag4
ag5
ag29
aa(lp7660
g29
ag40
ag29
aa(lp7661
g7
ag3
ag4
ag10
aa(lp7662
g197
aV15
p7663
aa(lp7664
g197
ag3
aV20
p7665
aa(lp7666
g20
ag71
ag10
aV19
p7667
ag4
aa(lp7668
g16
ag3
ag10
ag4
ag29
aa(lp7669
g71
ag3
ag4
ag5
ag29
aa(lp7670
g29
ag40
ag4
ag29
aa(lp7671
a(lp7672
g2
ag8
aa(lp7673
g36
ag2
ag381
aa(lp7674
g20
ag4
ag27
aa(lp7675
g26
ag3
aV18
p7676
ag3
aa(lp7677
g197
ag3
ag10
ag4
aa(lp7678
g36
ag2
ag17
ag3
ag241
aa(lp7679
g23
aV17
p7680
ag4
aa(lp7681
g7
ag40
ag3
aa(lp7682
g16
ag17
ag4
ag12
aa(lp7683
a(lp7684
a(lp7685
g20
ag71
ag3
ag110
aa(lp7686
g71
ag3
aV13
p7687
aa(lp7688
g16
ag3
aV18
p7689
aa(lp7690
g16
ag17
ag4
aV15
p7691
aa(lp7692
g7
ag17
ag40
ag3
aa(lp7693
g42
ag3
ag27
aa(lp7694
a(lp7695
g7
ag4
aV10
p7696
aa(lp7697
g34
ag10
ag40
ag29
aa(lp7698
g31
ag17
ag3
ag12
aa(lp7699
g36
ag2
ag17
ag3
ag8
aa(lp7700
g23
ag40
aa(lp7701
g7
ag3
aV13
p7702
aa(lp7703
g82
ag3
ag10
ag3
ag29
aa(lp7704
g42
ag3
ag10
aa(lp7705
g36
ag2
ag3
ag4
ag8
aa(lp7706
g20
ag23
ag3
ag8
aa(lp7707
g7
aV14
p7708
aa(lp7709
g34
ag12
aa(lp7710
a(lp7711
g34
ag10
aV10
p7712
aa(lp7713
g26
aV12
p7714
aa(lp7715
g51
ag4
aV10
p7716
aa(lp7717
g51
ag4
ag27
aa(lp7718
g36
ag10
aV14
p7719
aa(lp7720
a(lp7721
g23
ag3
ag10
ag3
aa(lp7722
g2
aV14
p7723
aa(lp7724
g16
ag4
ag8
aa(lp7725
g34
ag8
ag4
aa(lp7726
g16
ag17
ag10
ag40
aa(lp7727
g23
aV17
p7728
ag4
aa(lp7729
g36
ag2
ag17
ag3
ag241
aa(lp7730
g23
aV17
p7731
ag4
aa(lp7732
g42
ag3
aV14
p7733
aa(lp7734
g16
aV15
p7735
aa(lp7736
g7
ag40
ag3
aa(lp7737
g71
ag3
aV13
p7738
aa(lp7739
g16
aV15
p7740
aa(lp7741
g20
ag3
aV21
p7742
aa(lp7743
g26
ag10
aV12
p7744
ag3
aa(lp7745
g2
ag3
ag10
aa(lp7746
g51
ag4
ag27
aa(lp7747
g7
ag12
aa(lp7748
g23
ag12
ag29
aa(lp7749
g36
ag2
ag17
ag3
ag12
aa(lp7750
g42
ag10
ag40
aa(lp7751
g7
ag8
ag4
aa(lp7752
g36
ag42
ag17
ag10
ag8
ag4
aa(lp7753
g82
aV17
p7754
ag3
aa(lp7755
g14
ag3
ag10
ag4
aa(lp7756
g7
aV10
p7757
aa(lp7758
g16
ag27
aa(lp7759
g16
ag8
ag4
aa(lp7760
g23
aV17
p7761
ag4
aa(lp7762
g7
ag17
ag40
ag3
aa(lp7763
g20
ag23
ag3
ag5
ag3
aa(lp7764
g7
ag8
aa(lp7765
g36
ag42
ag17
ag3
ag8
ag4
aa(lp7766
g42
ag10
ag40
ag4
aa(lp7767
g31
ag17
ag10
aV20
p7768
aa(lp7769
a(lp7770
g20
ag3
ag10
aa(lp7771
g7
ag8
aa(lp7772
g20
ag23
aV10
p7773
ag3
aa(lp7774
g51
ag12
aa(lp7775
g16
ag3
ag27
ag29
aa(lp7776
g42
ag3
ag10
aa(lp7777
V4
p7778
ag10
ag12
aa(lp7779
g20
ag71
ag10
aV21
p7780
aa(lp7781
g31
ag17
ag3
ag5
ag3
aa(lp7782
g36
ag2
ag17
ag3
ag5
aa(lp7783
g16
ag10
ag12
aa(lp7784
g16
ag17
ag4
ag12
aa(lp7785
a(lp7786
g29
ag3
ag12
ag29
aa(lp7787
g7
aV14
p7788
aa(lp7789
g31
ag10
ag381
ag3
aa(lp7790
g245
aV21
p7791
aa(lp7792
g16
ag17
ag3
ag27
ag29
aa(lp7793
g2
ag3
ag5
aa(lp7794
g36
ag2
ag17
ag40
aa(lp7795
a(lp7796
g23
ag12
ag29
aa(lp7797
g34
ag8
ag4
aa(lp7798
g7
aV10
p7799
aa(lp7800
g16
ag12
aa(lp7801
g36
ag2
aV10
p7802
aa(lp7803
g7
ag17
ag3
aV13
p7804
aa(lp7805
g16
ag17
ag8
ag4
aa(lp7806
g29
ag40
ag29
aa(lp7807
g7
aV10
p7808
aa(lp7809
g16
ag27
aa(lp7810
g82
aV19
p7811
aa(lp7812
g136
aV10
p7813
aa(lp7814
g2
ag4
aV22
p7815
aa(lp7816
g14
ag3
ag10
ag3
aa(lp7817
g197
ag3
aV19
p7818
ag4
aa(lp7819
g36
ag12
aa(lp7820
g42
ag10
aV10
p7821
aa(lp7822
g14
ag3
ag10
ag3
aa(lp7823
g36
ag10
aV14
p7824
aa(lp7825
g36
ag10
aV14
p7826
aa(lp7827
g20
ag3
ag110
aa(lp7828
g23
ag27
aa(lp7829
g23
ag27
ag29
aa(lp7830
g7
ag3
aV19
p7831
ag29
aa(lp7832
g36
ag3
ag5
ag29
aa(lp7833
g7
ag40
ag3
aa(lp7834
a(lp7835
g7
ag3
ag4
aV13
p7836
ag3
aa(lp7837
g7
ag3
ag4
ag27
aa(lp7838
g31
ag17
aV10
p7839
aa(lp7840
g197
ag3
ag12
aa(lp7841
g82
ag10
aV16
p7842
aa(lp7843
g7
ag3
ag4
ag27
aa(lp7844
g31
ag3
ag8
ag4
ag29
aa(lp7845
g197
ag8
aa(lp7846
g51
ag40
ag4
ag29
aa(lp7847
g36
ag2
ag40
ag29
aa(lp7848
g197
ag8
aa(lp7849
g31
aV10
p7850
ag29
aa(lp7851
g36
ag2
ag17
ag3
ag12
aa(lp7852
g26
aV17
p7853
ag3
aa(lp7854
a(lp7855
g31
aV11
p7856
aa(lp7857
g36
ag2
ag17
ag12
aa(lp7858
g42
ag3
ag8
ag4
aa(lp7859
g36
ag12
aa(lp7860
g31
ag3
ag10
ag3
aa(lp7861
g42
ag3
ag8
ag4
aa(lp7862
g36
ag2
ag17
ag12
aa(lp7863
g31
ag10
ag40
aa(lp7864
g31
ag17
ag3
ag10
aa(lp7865
g136
aV10
p7866
aa(lp7867
g42
ag3
ag5
ag3
aa(lp7868
g4
ag3
aV13
p7869
ag3
aa(lp7870
g82
ag3
aV11
p7871
aa(lp7872
a(lp7873
g23
aV17
p7874
ag4
aa(lp7875
g36
aV10
p7876
ag29
aa(lp7877
g26
ag40
ag3
aa(lp7878
g14
aV20
p7879
aa(lp7880
g197
ag3
ag12
aa(lp7881
g82
ag3
ag12
ag29
aa(lp7882
g36
ag42
ag17
ag3
ag110
aa(lp7883
g36
ag42
ag3
aV19
p7884
ag4
aa(lp7885
g2
ag3
aV18
p7886
aa(lp7887
g36
ag2
ag3
ag5
aa(lp7888
g7
ag3
ag10
ag3
aa(lp7889
g20
ag71
ag3
ag4
ag12
aa(lp7890
g20
ag40
ag4
aa(lp7891
g16
ag27
aa(lp7892
g36
ag12
aa(lp7893
g29
ag3
ag8
ag29
aa(lp7894
g16
ag17
ag12
aa(lp7895
g42
ag3
ag12
ag29
aa(lp7896
a(lp7897
a(lp7898
a(lp7899
a(lp7900
a(lp7901
a.