(lp0
S'\\under{\\rotate180{e}}'
p1
aS'\\under{\\midstroke{i}}'
p2
aS'\\underdot{\\rotate180{e}}'
p3
aS'\\underdot{\\midstroke{i}}'
p4
aS'\\upslash{n}'
p5
aS'\\upslash{s}'
p6
aS'\\upslash{z}'
p7
aS'\\gamma{}'
p8
aS'\\eta{}'
p9
aS'\\midstroke{i}'
p10
aS'\\rotate180{e}'
p11
aS'\\underdot{a}'
p12
aS'\\underdot{e}'
p13
aS'\\underdot{i}'
p14
aS'\\underdot{o}'
p15
aS'\\underdot{u}'
p16
aS'\\under{a}'
p17
aS'\\under{e}'
p18
aS'\\under{i}'
p19
aS'\\under{o}'
p20
aS'\\under{u}'
p21
aS'\\toptilde{a}'
p22
aS'\\toptilde{e}'
p23
aS'\\toptilde{i}'
p24
aS'\\toptilde{u}'
p25
a.